
bomb:     file format elf32-i386


Disassembly of section .init:

00002000 <_init>:
    2000:	f3 0f 1e fb          	endbr32 
    2004:	53                   	push   %ebx
    2005:	83 ec 08             	sub    $0x8,%esp
    2008:	e8 23 04 00 00       	call   2430 <__x86.get_pc_thunk.bx>
    200d:	81 c3 5f 4f 00 00    	add    $0x4f5f,%ebx
    2013:	8b 83 88 00 00 00    	mov    0x88(%ebx),%eax
    2019:	85 c0                	test   %eax,%eax
    201b:	74 02                	je     201f <_init+0x1f>
    201d:	ff d0                	call   *%eax
    201f:	83 c4 08             	add    $0x8,%esp
    2022:	5b                   	pop    %ebx
    2023:	c3                   	ret    

Disassembly of section .plt:

00002030 <.plt>:
    2030:	ff b3 04 00 00 00    	pushl  0x4(%ebx)
    2036:	ff a3 08 00 00 00    	jmp    *0x8(%ebx)
    203c:	0f 1f 40 00          	nopl   0x0(%eax)
    2040:	f3 0f 1e fb          	endbr32 
    2044:	68 00 00 00 00       	push   $0x0
    2049:	e9 e2 ff ff ff       	jmp    2030 <.plt>
    204e:	66 90                	xchg   %ax,%ax
    2050:	f3 0f 1e fb          	endbr32 
    2054:	68 08 00 00 00       	push   $0x8
    2059:	e9 d2 ff ff ff       	jmp    2030 <.plt>
    205e:	66 90                	xchg   %ax,%ax
    2060:	f3 0f 1e fb          	endbr32 
    2064:	68 10 00 00 00       	push   $0x10
    2069:	e9 c2 ff ff ff       	jmp    2030 <.plt>
    206e:	66 90                	xchg   %ax,%ax
    2070:	f3 0f 1e fb          	endbr32 
    2074:	68 18 00 00 00       	push   $0x18
    2079:	e9 b2 ff ff ff       	jmp    2030 <.plt>
    207e:	66 90                	xchg   %ax,%ax
    2080:	f3 0f 1e fb          	endbr32 
    2084:	68 20 00 00 00       	push   $0x20
    2089:	e9 a2 ff ff ff       	jmp    2030 <.plt>
    208e:	66 90                	xchg   %ax,%ax
    2090:	f3 0f 1e fb          	endbr32 
    2094:	68 28 00 00 00       	push   $0x28
    2099:	e9 92 ff ff ff       	jmp    2030 <.plt>
    209e:	66 90                	xchg   %ax,%ax
    20a0:	f3 0f 1e fb          	endbr32 
    20a4:	68 30 00 00 00       	push   $0x30
    20a9:	e9 82 ff ff ff       	jmp    2030 <.plt>
    20ae:	66 90                	xchg   %ax,%ax
    20b0:	f3 0f 1e fb          	endbr32 
    20b4:	68 38 00 00 00       	push   $0x38
    20b9:	e9 72 ff ff ff       	jmp    2030 <.plt>
    20be:	66 90                	xchg   %ax,%ax
    20c0:	f3 0f 1e fb          	endbr32 
    20c4:	68 40 00 00 00       	push   $0x40
    20c9:	e9 62 ff ff ff       	jmp    2030 <.plt>
    20ce:	66 90                	xchg   %ax,%ax
    20d0:	f3 0f 1e fb          	endbr32 
    20d4:	68 48 00 00 00       	push   $0x48
    20d9:	e9 52 ff ff ff       	jmp    2030 <.plt>
    20de:	66 90                	xchg   %ax,%ax
    20e0:	f3 0f 1e fb          	endbr32 
    20e4:	68 50 00 00 00       	push   $0x50
    20e9:	e9 42 ff ff ff       	jmp    2030 <.plt>
    20ee:	66 90                	xchg   %ax,%ax
    20f0:	f3 0f 1e fb          	endbr32 
    20f4:	68 58 00 00 00       	push   $0x58
    20f9:	e9 32 ff ff ff       	jmp    2030 <.plt>
    20fe:	66 90                	xchg   %ax,%ax
    2100:	f3 0f 1e fb          	endbr32 
    2104:	68 60 00 00 00       	push   $0x60
    2109:	e9 22 ff ff ff       	jmp    2030 <.plt>
    210e:	66 90                	xchg   %ax,%ax
    2110:	f3 0f 1e fb          	endbr32 
    2114:	68 68 00 00 00       	push   $0x68
    2119:	e9 12 ff ff ff       	jmp    2030 <.plt>
    211e:	66 90                	xchg   %ax,%ax
    2120:	f3 0f 1e fb          	endbr32 
    2124:	68 70 00 00 00       	push   $0x70
    2129:	e9 02 ff ff ff       	jmp    2030 <.plt>
    212e:	66 90                	xchg   %ax,%ax
    2130:	f3 0f 1e fb          	endbr32 
    2134:	68 78 00 00 00       	push   $0x78
    2139:	e9 f2 fe ff ff       	jmp    2030 <.plt>
    213e:	66 90                	xchg   %ax,%ax
    2140:	f3 0f 1e fb          	endbr32 
    2144:	68 80 00 00 00       	push   $0x80
    2149:	e9 e2 fe ff ff       	jmp    2030 <.plt>
    214e:	66 90                	xchg   %ax,%ax
    2150:	f3 0f 1e fb          	endbr32 
    2154:	68 88 00 00 00       	push   $0x88
    2159:	e9 d2 fe ff ff       	jmp    2030 <.plt>
    215e:	66 90                	xchg   %ax,%ax
    2160:	f3 0f 1e fb          	endbr32 
    2164:	68 90 00 00 00       	push   $0x90
    2169:	e9 c2 fe ff ff       	jmp    2030 <.plt>
    216e:	66 90                	xchg   %ax,%ax
    2170:	f3 0f 1e fb          	endbr32 
    2174:	68 98 00 00 00       	push   $0x98
    2179:	e9 b2 fe ff ff       	jmp    2030 <.plt>
    217e:	66 90                	xchg   %ax,%ax
    2180:	f3 0f 1e fb          	endbr32 
    2184:	68 a0 00 00 00       	push   $0xa0
    2189:	e9 a2 fe ff ff       	jmp    2030 <.plt>
    218e:	66 90                	xchg   %ax,%ax
    2190:	f3 0f 1e fb          	endbr32 
    2194:	68 a8 00 00 00       	push   $0xa8
    2199:	e9 92 fe ff ff       	jmp    2030 <.plt>
    219e:	66 90                	xchg   %ax,%ax
    21a0:	f3 0f 1e fb          	endbr32 
    21a4:	68 b0 00 00 00       	push   $0xb0
    21a9:	e9 82 fe ff ff       	jmp    2030 <.plt>
    21ae:	66 90                	xchg   %ax,%ax
    21b0:	f3 0f 1e fb          	endbr32 
    21b4:	68 b8 00 00 00       	push   $0xb8
    21b9:	e9 72 fe ff ff       	jmp    2030 <.plt>
    21be:	66 90                	xchg   %ax,%ax
    21c0:	f3 0f 1e fb          	endbr32 
    21c4:	68 c0 00 00 00       	push   $0xc0
    21c9:	e9 62 fe ff ff       	jmp    2030 <.plt>
    21ce:	66 90                	xchg   %ax,%ax
    21d0:	f3 0f 1e fb          	endbr32 
    21d4:	68 c8 00 00 00       	push   $0xc8
    21d9:	e9 52 fe ff ff       	jmp    2030 <.plt>
    21de:	66 90                	xchg   %ax,%ax
    21e0:	f3 0f 1e fb          	endbr32 
    21e4:	68 d0 00 00 00       	push   $0xd0
    21e9:	e9 42 fe ff ff       	jmp    2030 <.plt>
    21ee:	66 90                	xchg   %ax,%ax
    21f0:	f3 0f 1e fb          	endbr32 
    21f4:	68 d8 00 00 00       	push   $0xd8
    21f9:	e9 32 fe ff ff       	jmp    2030 <.plt>
    21fe:	66 90                	xchg   %ax,%ax
    2200:	f3 0f 1e fb          	endbr32 
    2204:	68 e0 00 00 00       	push   $0xe0
    2209:	e9 22 fe ff ff       	jmp    2030 <.plt>
    220e:	66 90                	xchg   %ax,%ax

Disassembly of section .plt.got:

00002210 <__cxa_finalize@plt>:
    2210:	f3 0f 1e fb          	endbr32 
    2214:	ff a3 84 00 00 00    	jmp    *0x84(%ebx)
    221a:	66 0f 1f 44 00 00    	nopw   0x0(%eax,%eax,1)

Disassembly of section .plt.sec:

00002220 <read@plt>:
    2220:	f3 0f 1e fb          	endbr32 
    2224:	ff a3 0c 00 00 00    	jmp    *0xc(%ebx)
    222a:	66 0f 1f 44 00 00    	nopw   0x0(%eax,%eax,1)

00002230 <fflush@plt>:
    2230:	f3 0f 1e fb          	endbr32 
    2234:	ff a3 10 00 00 00    	jmp    *0x10(%ebx)
    223a:	66 0f 1f 44 00 00    	nopw   0x0(%eax,%eax,1)

00002240 <fgets@plt>:
    2240:	f3 0f 1e fb          	endbr32 
    2244:	ff a3 14 00 00 00    	jmp    *0x14(%ebx)
    224a:	66 0f 1f 44 00 00    	nopw   0x0(%eax,%eax,1)

00002250 <signal@plt>:
    2250:	f3 0f 1e fb          	endbr32 
    2254:	ff a3 18 00 00 00    	jmp    *0x18(%ebx)
    225a:	66 0f 1f 44 00 00    	nopw   0x0(%eax,%eax,1)

00002260 <sleep@plt>:
    2260:	f3 0f 1e fb          	endbr32 
    2264:	ff a3 1c 00 00 00    	jmp    *0x1c(%ebx)
    226a:	66 0f 1f 44 00 00    	nopw   0x0(%eax,%eax,1)

00002270 <alarm@plt>:
    2270:	f3 0f 1e fb          	endbr32 
    2274:	ff a3 20 00 00 00    	jmp    *0x20(%ebx)
    227a:	66 0f 1f 44 00 00    	nopw   0x0(%eax,%eax,1)

00002280 <__stack_chk_fail@plt>:
    2280:	f3 0f 1e fb          	endbr32 
    2284:	ff a3 24 00 00 00    	jmp    *0x24(%ebx)
    228a:	66 0f 1f 44 00 00    	nopw   0x0(%eax,%eax,1)

00002290 <strcpy@plt>:
    2290:	f3 0f 1e fb          	endbr32 
    2294:	ff a3 28 00 00 00    	jmp    *0x28(%ebx)
    229a:	66 0f 1f 44 00 00    	nopw   0x0(%eax,%eax,1)

000022a0 <gethostname@plt>:
    22a0:	f3 0f 1e fb          	endbr32 
    22a4:	ff a3 2c 00 00 00    	jmp    *0x2c(%ebx)
    22aa:	66 0f 1f 44 00 00    	nopw   0x0(%eax,%eax,1)

000022b0 <getenv@plt>:
    22b0:	f3 0f 1e fb          	endbr32 
    22b4:	ff a3 30 00 00 00    	jmp    *0x30(%ebx)
    22ba:	66 0f 1f 44 00 00    	nopw   0x0(%eax,%eax,1)

000022c0 <malloc@plt>:
    22c0:	f3 0f 1e fb          	endbr32 
    22c4:	ff a3 34 00 00 00    	jmp    *0x34(%ebx)
    22ca:	66 0f 1f 44 00 00    	nopw   0x0(%eax,%eax,1)

000022d0 <puts@plt>:
    22d0:	f3 0f 1e fb          	endbr32 
    22d4:	ff a3 38 00 00 00    	jmp    *0x38(%ebx)
    22da:	66 0f 1f 44 00 00    	nopw   0x0(%eax,%eax,1)

000022e0 <__memmove_chk@plt>:
    22e0:	f3 0f 1e fb          	endbr32 
    22e4:	ff a3 3c 00 00 00    	jmp    *0x3c(%ebx)
    22ea:	66 0f 1f 44 00 00    	nopw   0x0(%eax,%eax,1)

000022f0 <exit@plt>:
    22f0:	f3 0f 1e fb          	endbr32 
    22f4:	ff a3 40 00 00 00    	jmp    *0x40(%ebx)
    22fa:	66 0f 1f 44 00 00    	nopw   0x0(%eax,%eax,1)

00002300 <__libc_start_main@plt>:
    2300:	f3 0f 1e fb          	endbr32 
    2304:	ff a3 44 00 00 00    	jmp    *0x44(%ebx)
    230a:	66 0f 1f 44 00 00    	nopw   0x0(%eax,%eax,1)

00002310 <write@plt>:
    2310:	f3 0f 1e fb          	endbr32 
    2314:	ff a3 48 00 00 00    	jmp    *0x48(%ebx)
    231a:	66 0f 1f 44 00 00    	nopw   0x0(%eax,%eax,1)

00002320 <strcasecmp@plt>:
    2320:	f3 0f 1e fb          	endbr32 
    2324:	ff a3 4c 00 00 00    	jmp    *0x4c(%ebx)
    232a:	66 0f 1f 44 00 00    	nopw   0x0(%eax,%eax,1)

00002330 <__isoc99_sscanf@plt>:
    2330:	f3 0f 1e fb          	endbr32 
    2334:	ff a3 50 00 00 00    	jmp    *0x50(%ebx)
    233a:	66 0f 1f 44 00 00    	nopw   0x0(%eax,%eax,1)

00002340 <fopen@plt>:
    2340:	f3 0f 1e fb          	endbr32 
    2344:	ff a3 54 00 00 00    	jmp    *0x54(%ebx)
    234a:	66 0f 1f 44 00 00    	nopw   0x0(%eax,%eax,1)

00002350 <__errno_location@plt>:
    2350:	f3 0f 1e fb          	endbr32 
    2354:	ff a3 58 00 00 00    	jmp    *0x58(%ebx)
    235a:	66 0f 1f 44 00 00    	nopw   0x0(%eax,%eax,1)

00002360 <__printf_chk@plt>:
    2360:	f3 0f 1e fb          	endbr32 
    2364:	ff a3 5c 00 00 00    	jmp    *0x5c(%ebx)
    236a:	66 0f 1f 44 00 00    	nopw   0x0(%eax,%eax,1)

00002370 <socket@plt>:
    2370:	f3 0f 1e fb          	endbr32 
    2374:	ff a3 60 00 00 00    	jmp    *0x60(%ebx)
    237a:	66 0f 1f 44 00 00    	nopw   0x0(%eax,%eax,1)

00002380 <__fprintf_chk@plt>:
    2380:	f3 0f 1e fb          	endbr32 
    2384:	ff a3 64 00 00 00    	jmp    *0x64(%ebx)
    238a:	66 0f 1f 44 00 00    	nopw   0x0(%eax,%eax,1)

00002390 <gethostbyname@plt>:
    2390:	f3 0f 1e fb          	endbr32 
    2394:	ff a3 68 00 00 00    	jmp    *0x68(%ebx)
    239a:	66 0f 1f 44 00 00    	nopw   0x0(%eax,%eax,1)

000023a0 <strtol@plt>:
    23a0:	f3 0f 1e fb          	endbr32 
    23a4:	ff a3 6c 00 00 00    	jmp    *0x6c(%ebx)
    23aa:	66 0f 1f 44 00 00    	nopw   0x0(%eax,%eax,1)

000023b0 <connect@plt>:
    23b0:	f3 0f 1e fb          	endbr32 
    23b4:	ff a3 70 00 00 00    	jmp    *0x70(%ebx)
    23ba:	66 0f 1f 44 00 00    	nopw   0x0(%eax,%eax,1)

000023c0 <close@plt>:
    23c0:	f3 0f 1e fb          	endbr32 
    23c4:	ff a3 74 00 00 00    	jmp    *0x74(%ebx)
    23ca:	66 0f 1f 44 00 00    	nopw   0x0(%eax,%eax,1)

000023d0 <__ctype_b_loc@plt>:
    23d0:	f3 0f 1e fb          	endbr32 
    23d4:	ff a3 78 00 00 00    	jmp    *0x78(%ebx)
    23da:	66 0f 1f 44 00 00    	nopw   0x0(%eax,%eax,1)

000023e0 <__sprintf_chk@plt>:
    23e0:	f3 0f 1e fb          	endbr32 
    23e4:	ff a3 7c 00 00 00    	jmp    *0x7c(%ebx)
    23ea:	66 0f 1f 44 00 00    	nopw   0x0(%eax,%eax,1)

Disassembly of section .text:

000023f0 <_start>:
    23f0:	f3 0f 1e fb          	endbr32 
    23f4:	31 ed                	xor    %ebp,%ebp
    23f6:	5e                   	pop    %esi
    23f7:	89 e1                	mov    %esp,%ecx
    23f9:	83 e4 f0             	and    $0xfffffff0,%esp
    23fc:	50                   	push   %eax
    23fd:	54                   	push   %esp
    23fe:	52                   	push   %edx
    23ff:	e8 22 00 00 00       	call   2426 <_start+0x36>
    2404:	81 c3 68 4b 00 00    	add    $0x4b68,%ebx
    240a:	8d 83 34 cd ff ff    	lea    -0x32cc(%ebx),%eax
    2410:	50                   	push   %eax
    2411:	8d 83 c4 cc ff ff    	lea    -0x333c(%ebx),%eax
    2417:	50                   	push   %eax
    2418:	51                   	push   %ecx
    2419:	56                   	push   %esi
    241a:	ff b3 8c 00 00 00    	pushl  0x8c(%ebx)
    2420:	e8 db fe ff ff       	call   2300 <__libc_start_main@plt>
    2425:	f4                   	hlt    
    2426:	8b 1c 24             	mov    (%esp),%ebx
    2429:	c3                   	ret    
    242a:	66 90                	xchg   %ax,%ax
    242c:	66 90                	xchg   %ax,%ax
    242e:	66 90                	xchg   %ax,%ax

00002430 <__x86.get_pc_thunk.bx>:
    2430:	8b 1c 24             	mov    (%esp),%ebx
    2433:	c3                   	ret    
    2434:	66 90                	xchg   %ax,%ax
    2436:	66 90                	xchg   %ax,%ax
    2438:	66 90                	xchg   %ax,%ax
    243a:	66 90                	xchg   %ax,%ax
    243c:	66 90                	xchg   %ax,%ax
    243e:	66 90                	xchg   %ax,%ax

00002440 <deregister_tm_clones>:
    2440:	e8 e4 00 00 00       	call   2529 <__x86.get_pc_thunk.dx>
    2445:	81 c2 27 4b 00 00    	add    $0x4b27,%edx
    244b:	8d 8a d4 07 00 00    	lea    0x7d4(%edx),%ecx
    2451:	8d 82 d4 07 00 00    	lea    0x7d4(%edx),%eax
    2457:	39 c8                	cmp    %ecx,%eax
    2459:	74 1d                	je     2478 <deregister_tm_clones+0x38>
    245b:	8b 82 80 00 00 00    	mov    0x80(%edx),%eax
    2461:	85 c0                	test   %eax,%eax
    2463:	74 13                	je     2478 <deregister_tm_clones+0x38>
    2465:	55                   	push   %ebp
    2466:	89 e5                	mov    %esp,%ebp
    2468:	83 ec 14             	sub    $0x14,%esp
    246b:	51                   	push   %ecx
    246c:	ff d0                	call   *%eax
    246e:	83 c4 10             	add    $0x10,%esp
    2471:	c9                   	leave  
    2472:	c3                   	ret    
    2473:	8d 74 26 00          	lea    0x0(%esi,%eiz,1),%esi
    2477:	90                   	nop
    2478:	c3                   	ret    
    2479:	8d b4 26 00 00 00 00 	lea    0x0(%esi,%eiz,1),%esi

00002480 <register_tm_clones>:
    2480:	e8 a4 00 00 00       	call   2529 <__x86.get_pc_thunk.dx>
    2485:	81 c2 e7 4a 00 00    	add    $0x4ae7,%edx
    248b:	55                   	push   %ebp
    248c:	89 e5                	mov    %esp,%ebp
    248e:	53                   	push   %ebx
    248f:	8d 8a d4 07 00 00    	lea    0x7d4(%edx),%ecx
    2495:	8d 82 d4 07 00 00    	lea    0x7d4(%edx),%eax
    249b:	83 ec 04             	sub    $0x4,%esp
    249e:	29 c8                	sub    %ecx,%eax
    24a0:	89 c3                	mov    %eax,%ebx
    24a2:	c1 e8 1f             	shr    $0x1f,%eax
    24a5:	c1 fb 02             	sar    $0x2,%ebx
    24a8:	01 d8                	add    %ebx,%eax
    24aa:	d1 f8                	sar    %eax
    24ac:	74 14                	je     24c2 <register_tm_clones+0x42>
    24ae:	8b 92 90 00 00 00    	mov    0x90(%edx),%edx
    24b4:	85 d2                	test   %edx,%edx
    24b6:	74 0a                	je     24c2 <register_tm_clones+0x42>
    24b8:	83 ec 08             	sub    $0x8,%esp
    24bb:	50                   	push   %eax
    24bc:	51                   	push   %ecx
    24bd:	ff d2                	call   *%edx
    24bf:	83 c4 10             	add    $0x10,%esp
    24c2:	8b 5d fc             	mov    -0x4(%ebp),%ebx
    24c5:	c9                   	leave  
    24c6:	c3                   	ret    
    24c7:	8d b4 26 00 00 00 00 	lea    0x0(%esi,%eiz,1),%esi
    24ce:	66 90                	xchg   %ax,%ax

000024d0 <__do_global_dtors_aux>:
    24d0:	f3 0f 1e fb          	endbr32 
    24d4:	55                   	push   %ebp
    24d5:	89 e5                	mov    %esp,%ebp
    24d7:	53                   	push   %ebx
    24d8:	e8 53 ff ff ff       	call   2430 <__x86.get_pc_thunk.bx>
    24dd:	81 c3 8f 4a 00 00    	add    $0x4a8f,%ebx
    24e3:	83 ec 04             	sub    $0x4,%esp
    24e6:	80 bb fc 07 00 00 00 	cmpb   $0x0,0x7fc(%ebx)
    24ed:	75 27                	jne    2516 <__do_global_dtors_aux+0x46>
    24ef:	8b 83 84 00 00 00    	mov    0x84(%ebx),%eax
    24f5:	85 c0                	test   %eax,%eax
    24f7:	74 11                	je     250a <__do_global_dtors_aux+0x3a>
    24f9:	83 ec 0c             	sub    $0xc,%esp
    24fc:	ff b3 98 00 00 00    	pushl  0x98(%ebx)
    2502:	e8 09 fd ff ff       	call   2210 <__cxa_finalize@plt>
    2507:	83 c4 10             	add    $0x10,%esp
    250a:	e8 31 ff ff ff       	call   2440 <deregister_tm_clones>
    250f:	c6 83 fc 07 00 00 01 	movb   $0x1,0x7fc(%ebx)
    2516:	8b 5d fc             	mov    -0x4(%ebp),%ebx
    2519:	c9                   	leave  
    251a:	c3                   	ret    
    251b:	8d 74 26 00          	lea    0x0(%esi,%eiz,1),%esi
    251f:	90                   	nop

00002520 <frame_dummy>:
    2520:	f3 0f 1e fb          	endbr32 
    2524:	e9 57 ff ff ff       	jmp    2480 <register_tm_clones>

00002529 <__x86.get_pc_thunk.dx>:
    2529:	8b 14 24             	mov    (%esp),%edx
    252c:	c3                   	ret    

0000252d <main>:
    252d:	f3 0f 1e fb          	endbr32 
    2531:	8d 4c 24 04          	lea    0x4(%esp),%ecx
    2535:	83 e4 f0             	and    $0xfffffff0,%esp
    2538:	ff 71 fc             	pushl  -0x4(%ecx)
    253b:	55                   	push   %ebp
    253c:	89 e5                	mov    %esp,%ebp
    253e:	53                   	push   %ebx
    253f:	51                   	push   %ecx
    2540:	8b 01                	mov    (%ecx),%eax
    2542:	8b 59 04             	mov    0x4(%ecx),%ebx
    2545:	83 f8 01             	cmp    $0x1,%eax
    2548:	0f 84 5b 01 00 00    	je     26a9 <main+0x17c>
    254e:	83 f8 02             	cmp    $0x2,%eax
    2551:	0f 85 7e 01 00 00    	jne    26d5 <main+0x1a8>
    2557:	83 ec 08             	sub    $0x8,%esp
    255a:	68 08 40 00 00       	push   $0x4008
    255f:	ff 73 04             	pushl  0x4(%ebx)
    2562:	e8 fc ff ff ff       	call   2563 <main+0x36>
    2567:	a3 70 77 00 00       	mov    %eax,0x7770
    256c:	83 c4 10             	add    $0x10,%esp
    256f:	85 c0                	test   %eax,%eax
    2571:	0f 84 41 01 00 00    	je     26b8 <main+0x18b>
    2577:	e8 5e 07 00 00       	call   2cda <initialize_bomb>
    257c:	83 ec 0c             	sub    $0xc,%esp
    257f:	68 98 40 00 00       	push   $0x4098
    2584:	e8 fc ff ff ff       	call   2585 <main+0x58>
    2589:	c7 04 24 d4 40 00 00 	movl   $0x40d4,(%esp)
    2590:	e8 fc ff ff ff       	call   2591 <main+0x64>
    2595:	e8 0f 0a 00 00       	call   2fa9 <read_line>
    259a:	89 04 24             	mov    %eax,(%esp)
    259d:	e8 50 01 00 00       	call   26f2 <phase_1>
    25a2:	e8 03 0b 00 00       	call   30aa <phase_defused>
    25a7:	c7 04 24 00 41 00 00 	movl   $0x4100,(%esp)
    25ae:	e8 fc ff ff ff       	call   25af <main+0x82>
    25b3:	e8 f1 09 00 00       	call   2fa9 <read_line>
    25b8:	89 04 24             	mov    %eax,(%esp)
    25bb:	e8 96 01 00 00       	call   2756 <phase_2>
    25c0:	e8 e5 0a 00 00       	call   30aa <phase_defused>
    25c5:	c7 04 24 41 40 00 00 	movl   $0x4041,(%esp)
    25cc:	e8 fc ff ff ff       	call   25cd <main+0xa0>
    25d1:	e8 d3 09 00 00       	call   2fa9 <read_line>
    25d6:	89 04 24             	mov    %eax,(%esp)
    25d9:	e8 9f 01 00 00       	call   277d <phase_3>
    25de:	e8 c7 0a 00 00       	call   30aa <phase_defused>
    25e3:	c7 04 24 5f 40 00 00 	movl   $0x405f,(%esp)
    25ea:	e8 fc ff ff ff       	call   25eb <main+0xbe>
    25ef:	e8 b5 09 00 00       	call   2fa9 <read_line>
    25f4:	89 04 24             	mov    %eax,(%esp)
    25f7:	e8 e2 01 00 00       	call   27de <phase_4>
    25fc:	e8 a9 0a 00 00       	call   30aa <phase_defused>
    2601:	c7 04 24 2c 41 00 00 	movl   $0x412c,(%esp)
    2608:	e8 fc ff ff ff       	call   2609 <main+0xdc>
    260d:	e8 97 09 00 00       	call   2fa9 <read_line>
    2612:	89 04 24             	mov    %eax,(%esp)
    2615:	e8 25 02 00 00       	call   283f <phase_5>
    261a:	e8 8b 0a 00 00       	call   30aa <phase_defused>
    261f:	c7 04 24 70 40 00 00 	movl   $0x4070,(%esp)
    2626:	e8 fc ff ff ff       	call   2627 <main+0xfa>
    262b:	e8 79 09 00 00       	call   2fa9 <read_line>
    2630:	89 04 24             	mov    %eax,(%esp)
    2633:	e8 e2 02 00 00       	call   291a <phase_6>
    2638:	e8 6d 0a 00 00       	call   30aa <phase_defused>
    263d:	c7 04 24 50 41 00 00 	movl   $0x4150,(%esp)
    2644:	e8 fc ff ff ff       	call   2645 <main+0x118>
    2649:	e8 5b 09 00 00       	call   2fa9 <read_line>
    264e:	89 04 24             	mov    %eax,(%esp)
    2651:	e8 3d 03 00 00       	call   2993 <phase_7>
    2656:	e8 4f 0a 00 00       	call   30aa <phase_defused>
    265b:	c7 04 24 70 41 00 00 	movl   $0x4170,(%esp)
    2662:	e8 fc ff ff ff       	call   2663 <main+0x136>
    2667:	e8 3d 09 00 00       	call   2fa9 <read_line>
    266c:	89 04 24             	mov    %eax,(%esp)
    266f:	e8 b2 03 00 00       	call   2a26 <phase_8>
    2674:	e8 31 0a 00 00       	call   30aa <phase_defused>
    2679:	c7 04 24 8e 40 00 00 	movl   $0x408e,(%esp)
    2680:	e8 fc ff ff ff       	call   2681 <main+0x154>
    2685:	e8 1f 09 00 00       	call   2fa9 <read_line>
    268a:	89 04 24             	mov    %eax,(%esp)
    268d:	e8 f8 04 00 00       	call   2b8a <phase_9>
    2692:	e8 13 0a 00 00       	call   30aa <phase_defused>
    2697:	83 c4 10             	add    $0x10,%esp
    269a:	b8 00 00 00 00       	mov    $0x0,%eax
    269f:	8d 65 f8             	lea    -0x8(%ebp),%esp
    26a2:	59                   	pop    %ecx
    26a3:	5b                   	pop    %ebx
    26a4:	5d                   	pop    %ebp
    26a5:	8d 61 fc             	lea    -0x4(%ecx),%esp
    26a8:	c3                   	ret    
    26a9:	a1 00 00 00 00       	mov    0x0,%eax
    26ae:	a3 70 77 00 00       	mov    %eax,0x7770
    26b3:	e9 bf fe ff ff       	jmp    2577 <main+0x4a>
    26b8:	ff 73 04             	pushl  0x4(%ebx)
    26bb:	ff 33                	pushl  (%ebx)
    26bd:	68 0a 40 00 00       	push   $0x400a
    26c2:	6a 01                	push   $0x1
    26c4:	e8 fc ff ff ff       	call   26c5 <main+0x198>
    26c9:	c7 04 24 08 00 00 00 	movl   $0x8,(%esp)
    26d0:	e8 fc ff ff ff       	call   26d1 <main+0x1a4>
    26d5:	83 ec 04             	sub    $0x4,%esp
    26d8:	ff 33                	pushl  (%ebx)
    26da:	68 27 40 00 00       	push   $0x4027
    26df:	6a 01                	push   $0x1
    26e1:	e8 fc ff ff ff       	call   26e2 <main+0x1b5>
    26e6:	c7 04 24 08 00 00 00 	movl   $0x8,(%esp)
    26ed:	e8 fc ff ff ff       	call   26ee <main+0x1c1>

000026f2 <phase_1>:
    26f2:	f3 0f 1e fb          	endbr32 
    26f6:	83 ec 20             	sub    $0x20,%esp
    26f9:	65 a1 14 00 00 00    	mov    %gs:0x14,%eax
    26ff:	89 44 24 10          	mov    %eax,0x10(%esp)
    2703:	31 c0                	xor    %eax,%eax
    2705:	c7 44 24 0c 00 00 00 	movl   $0x0,0xc(%esp)
    270c:	00 
    270d:	8d 44 24 0c          	lea    0xc(%esp),%eax
    2711:	50                   	push   %eax
    2712:	68 40 44 00 00       	push   $0x4440
    2717:	ff 74 24 2c          	pushl  0x2c(%esp)
    271b:	e8 fc ff ff ff       	call   271c <phase_1+0x2a>
    2720:	83 c4 10             	add    $0x10,%esp
    2723:	83 f8 01             	cmp    $0x1,%eax
    2726:	75 1b                	jne    2743 <phase_1+0x51>
    2728:	81 7c 24 08 0b 03 00 	cmpl   $0x30b,0x8(%esp)
    272f:	00 
    2730:	75 18                	jne    274a <phase_1+0x58>
    2732:	8b 44 24 0c          	mov    0xc(%esp),%eax
    2736:	65 33 05 14 00 00 00 	xor    %gs:0x14,%eax
    273d:	75 12                	jne    2751 <phase_1+0x5f>
    273f:	83 c4 1c             	add    $0x1c,%esp
    2742:	c3                   	ret    
    2743:	e8 df 07 00 00       	call   2f27 <explode_bomb>
    2748:	eb de                	jmp    2728 <phase_1+0x36>
    274a:	e8 d8 07 00 00       	call   2f27 <explode_bomb>
    274f:	eb e1                	jmp    2732 <phase_1+0x40>
    2751:	e8 fc ff ff ff       	call   2752 <phase_1+0x60>

00002756 <phase_2>:
    2756:	f3 0f 1e fb          	endbr32 
    275a:	83 ec 14             	sub    $0x14,%esp
    275d:	68 90 41 00 00       	push   $0x4190
    2762:	ff 74 24 1c          	pushl  0x1c(%esp)
    2766:	e8 13 05 00 00       	call   2c7e <strings_not_equal>
    276b:	83 c4 10             	add    $0x10,%esp
    276e:	85 c0                	test   %eax,%eax
    2770:	75 04                	jne    2776 <phase_2+0x20>
    2772:	83 c4 0c             	add    $0xc,%esp
    2775:	c3                   	ret    
    2776:	e8 ac 07 00 00       	call   2f27 <explode_bomb>
    277b:	eb f5                	jmp    2772 <phase_2+0x1c>

0000277d <phase_3>:
    277d:	f3 0f 1e fb          	endbr32 
    2781:	57                   	push   %edi
    2782:	56                   	push   %esi
    2783:	83 ec 10             	sub    $0x10,%esp
    2786:	68 b0 41 00 00       	push   $0x41b0
    278b:	e8 cc 04 00 00       	call   2c5c <string_length>
    2790:	83 c0 01             	add    $0x1,%eax
    2793:	89 04 24             	mov    %eax,(%esp)
    2796:	e8 fc ff ff ff       	call   2797 <phase_3+0x1a>
    279b:	be b0 41 00 00       	mov    $0x41b0,%esi
    27a0:	b9 0f 00 00 00       	mov    $0xf,%ecx
    27a5:	89 c7                	mov    %eax,%edi
    27a7:	f3 a5                	rep movsl %ds:(%esi),%es:(%edi)
    27a9:	0f b7 16             	movzwl (%esi),%edx
    27ac:	66 89 17             	mov    %dx,(%edi)
    27af:	0f b6 15 ee 41 00 00 	movzbl 0x41ee,%edx
    27b6:	88 57 02             	mov    %dl,0x2(%edi)
    27b9:	c6 40 06 6e          	movb   $0x6e,0x6(%eax)
    27bd:	83 c4 08             	add    $0x8,%esp
    27c0:	50                   	push   %eax
    27c1:	ff 74 24 1c          	pushl  0x1c(%esp)
    27c5:	e8 b4 04 00 00       	call   2c7e <strings_not_equal>
    27ca:	83 c4 10             	add    $0x10,%esp
    27cd:	85 c0                	test   %eax,%eax
    27cf:	75 06                	jne    27d7 <phase_3+0x5a>
    27d1:	83 c4 04             	add    $0x4,%esp
    27d4:	5e                   	pop    %esi
    27d5:	5f                   	pop    %edi
    27d6:	c3                   	ret    
    27d7:	e8 4b 07 00 00       	call   2f27 <explode_bomb>
    27dc:	eb f3                	jmp    27d1 <phase_3+0x54>

000027de <phase_4>:
    27de:	f3 0f 1e fb          	endbr32 
    27e2:	56                   	push   %esi
    27e3:	53                   	push   %ebx
    27e4:	83 ec 10             	sub    $0x10,%esp
    27e7:	8b 74 24 1c          	mov    0x1c(%esp),%esi
    27eb:	56                   	push   %esi
    27ec:	e8 6b 04 00 00       	call   2c5c <string_length>
    27f1:	89 c3                	mov    %eax,%ebx
    27f3:	8d 40 01             	lea    0x1(%eax),%eax
    27f6:	89 04 24             	mov    %eax,(%esp)
    27f9:	e8 fc ff ff ff       	call   27fa <phase_4+0x1c>
    27fe:	8d 14 18             	lea    (%eax,%ebx,1),%edx
    2801:	c6 02 00             	movb   $0x0,(%edx)
    2804:	0f b6 0e             	movzbl (%esi),%ecx
    2807:	83 c4 10             	add    $0x10,%esp
    280a:	84 c9                	test   %cl,%cl
    280c:	74 0f                	je     281d <phase_4+0x3f>
    280e:	83 ea 01             	sub    $0x1,%edx
    2811:	88 0a                	mov    %cl,(%edx)
    2813:	83 c6 01             	add    $0x1,%esi
    2816:	0f b6 0e             	movzbl (%esi),%ecx
    2819:	84 c9                	test   %cl,%cl
    281b:	75 f1                	jne    280e <phase_4+0x30>
    281d:	83 ec 08             	sub    $0x8,%esp
    2820:	50                   	push   %eax
    2821:	68 f0 41 00 00       	push   $0x41f0
    2826:	e8 53 04 00 00       	call   2c7e <strings_not_equal>
    282b:	83 c4 10             	add    $0x10,%esp
    282e:	85 c0                	test   %eax,%eax
    2830:	75 06                	jne    2838 <phase_4+0x5a>
    2832:	83 c4 04             	add    $0x4,%esp
    2835:	5b                   	pop    %ebx
    2836:	5e                   	pop    %esi
    2837:	c3                   	ret    
    2838:	e8 ea 06 00 00       	call   2f27 <explode_bomb>
    283d:	eb f3                	jmp    2832 <phase_4+0x54>

0000283f <phase_5>:
    283f:	f3 0f 1e fb          	endbr32 
    2843:	53                   	push   %ebx
    2844:	83 ec 1c             	sub    $0x1c,%esp
    2847:	65 a1 14 00 00 00    	mov    %gs:0x14,%eax
    284d:	89 44 24 10          	mov    %eax,0x10(%esp)
    2851:	31 c0                	xor    %eax,%eax
    2853:	8d 44 24 0c          	lea    0xc(%esp),%eax
    2857:	50                   	push   %eax
    2858:	68 40 44 00 00       	push   $0x4440
    285d:	ff 74 24 2c          	pushl  0x2c(%esp)
    2861:	e8 fc ff ff ff       	call   2862 <phase_5+0x23>
    2866:	83 c4 10             	add    $0x10,%esp
    2869:	83 f8 01             	cmp    $0x1,%eax
    286c:	75 38                	jne    28a6 <phase_5+0x67>
    286e:	8b 5c 24 08          	mov    0x8(%esp),%ebx
    2872:	85 db                	test   %ebx,%ebx
    2874:	7e 37                	jle    28ad <phase_5+0x6e>
    2876:	b8 01 00 00 00       	mov    $0x1,%eax
    287b:	ba 00 00 00 00       	mov    $0x0,%edx
    2880:	8d 0c 40             	lea    (%eax,%eax,2),%ecx
    2883:	8d 04 81             	lea    (%ecx,%eax,4),%eax
    2886:	83 c2 01             	add    $0x1,%edx
    2889:	39 da                	cmp    %ebx,%edx
    288b:	75 f3                	jne    2880 <phase_5+0x41>
    288d:	3d a7 41 00 00       	cmp    $0x41a7,%eax
    2892:	75 19                	jne    28ad <phase_5+0x6e>
    2894:	8b 44 24 0c          	mov    0xc(%esp),%eax
    2898:	65 33 05 14 00 00 00 	xor    %gs:0x14,%eax
    289f:	75 13                	jne    28b4 <phase_5+0x75>
    28a1:	83 c4 18             	add    $0x18,%esp
    28a4:	5b                   	pop    %ebx
    28a5:	c3                   	ret    
    28a6:	e8 7c 06 00 00       	call   2f27 <explode_bomb>
    28ab:	eb c1                	jmp    286e <phase_5+0x2f>
    28ad:	e8 75 06 00 00       	call   2f27 <explode_bomb>
    28b2:	eb e0                	jmp    2894 <phase_5+0x55>
    28b4:	e8 fc ff ff ff       	call   28b5 <phase_5+0x76>

000028b9 <func6>:
    28b9:	f3 0f 1e fb          	endbr32 
    28bd:	56                   	push   %esi
    28be:	53                   	push   %ebx
    28bf:	83 ec 04             	sub    $0x4,%esp
    28c2:	8b 4c 24 10          	mov    0x10(%esp),%ecx
    28c6:	8b 44 24 14          	mov    0x14(%esp),%eax
    28ca:	8b 5c 24 18          	mov    0x18(%esp),%ebx
    28ce:	89 de                	mov    %ebx,%esi
    28d0:	29 c6                	sub    %eax,%esi
    28d2:	89 f2                	mov    %esi,%edx
    28d4:	c1 ea 1f             	shr    $0x1f,%edx
    28d7:	01 f2                	add    %esi,%edx
    28d9:	d1 fa                	sar    %edx
    28db:	01 c2                	add    %eax,%edx
    28dd:	39 ca                	cmp    %ecx,%edx
    28df:	7f 0d                	jg     28ee <func6+0x35>
    28e1:	b8 00 00 00 00       	mov    $0x0,%eax
    28e6:	7c 1b                	jl     2903 <func6+0x4a>
    28e8:	83 c4 04             	add    $0x4,%esp
    28eb:	5b                   	pop    %ebx
    28ec:	5e                   	pop    %esi
    28ed:	c3                   	ret    
    28ee:	83 ec 04             	sub    $0x4,%esp
    28f1:	83 ea 01             	sub    $0x1,%edx
    28f4:	52                   	push   %edx
    28f5:	50                   	push   %eax
    28f6:	51                   	push   %ecx
    28f7:	e8 bd ff ff ff       	call   28b9 <func6>
    28fc:	83 c4 10             	add    $0x10,%esp
    28ff:	01 c0                	add    %eax,%eax
    2901:	eb e5                	jmp    28e8 <func6+0x2f>
    2903:	83 ec 04             	sub    $0x4,%esp
    2906:	53                   	push   %ebx
    2907:	83 c2 01             	add    $0x1,%edx
    290a:	52                   	push   %edx
    290b:	51                   	push   %ecx
    290c:	e8 a8 ff ff ff       	call   28b9 <func6>
    2911:	83 c4 10             	add    $0x10,%esp
    2914:	8d 44 00 01          	lea    0x1(%eax,%eax,1),%eax
    2918:	eb ce                	jmp    28e8 <func6+0x2f>

0000291a <phase_6>:
    291a:	f3 0f 1e fb          	endbr32 
    291e:	83 ec 1c             	sub    $0x1c,%esp
    2921:	65 a1 14 00 00 00    	mov    %gs:0x14,%eax
    2927:	89 44 24 0c          	mov    %eax,0xc(%esp)
    292b:	31 c0                	xor    %eax,%eax
    292d:	8d 44 24 08          	lea    0x8(%esp),%eax
    2931:	50                   	push   %eax
    2932:	8d 44 24 08          	lea    0x8(%esp),%eax
    2936:	50                   	push   %eax
    2937:	68 3d 44 00 00       	push   $0x443d
    293c:	ff 74 24 2c          	pushl  0x2c(%esp)
    2940:	e8 fc ff ff ff       	call   2941 <phase_6+0x27>
    2945:	83 c4 10             	add    $0x10,%esp
    2948:	83 f8 02             	cmp    $0x2,%eax
    294b:	75 07                	jne    2954 <phase_6+0x3a>
    294d:	83 7c 24 04 0e       	cmpl   $0xe,0x4(%esp)
    2952:	76 05                	jbe    2959 <phase_6+0x3f>
    2954:	e8 ce 05 00 00       	call   2f27 <explode_bomb>
    2959:	83 ec 04             	sub    $0x4,%esp
    295c:	6a 0e                	push   $0xe
    295e:	6a 00                	push   $0x0
    2960:	ff 74 24 10          	pushl  0x10(%esp)
    2964:	e8 50 ff ff ff       	call   28b9 <func6>
    2969:	83 c4 10             	add    $0x10,%esp
    296c:	83 f8 02             	cmp    $0x2,%eax
    296f:	75 07                	jne    2978 <phase_6+0x5e>
    2971:	83 7c 24 08 02       	cmpl   $0x2,0x8(%esp)
    2976:	74 05                	je     297d <phase_6+0x63>
    2978:	e8 aa 05 00 00       	call   2f27 <explode_bomb>
    297d:	8b 44 24 0c          	mov    0xc(%esp),%eax
    2981:	65 33 05 14 00 00 00 	xor    %gs:0x14,%eax
    2988:	75 04                	jne    298e <phase_6+0x74>
    298a:	83 c4 1c             	add    $0x1c,%esp
    298d:	c3                   	ret    
    298e:	e8 fc ff ff ff       	call   298f <phase_6+0x75>

00002993 <phase_7>:
    2993:	f3 0f 1e fb          	endbr32 
    2997:	83 ec 1c             	sub    $0x1c,%esp
    299a:	65 a1 14 00 00 00    	mov    %gs:0x14,%eax
    29a0:	89 44 24 0c          	mov    %eax,0xc(%esp)
    29a4:	31 c0                	xor    %eax,%eax
    29a6:	8d 44 24 08          	lea    0x8(%esp),%eax
    29aa:	50                   	push   %eax
    29ab:	8d 44 24 08          	lea    0x8(%esp),%eax
    29af:	50                   	push   %eax
    29b0:	68 3d 44 00 00       	push   $0x443d
    29b5:	ff 74 24 2c          	pushl  0x2c(%esp)
    29b9:	e8 fc ff ff ff       	call   29ba <phase_7+0x27>
    29be:	83 c4 10             	add    $0x10,%esp
    29c1:	83 f8 01             	cmp    $0x1,%eax
    29c4:	7e 54                	jle    2a1a <phase_7+0x87>
    29c6:	8b 44 24 04          	mov    0x4(%esp),%eax
    29ca:	83 e0 0f             	and    $0xf,%eax
    29cd:	89 44 24 04          	mov    %eax,0x4(%esp)
    29d1:	83 f8 0f             	cmp    $0xf,%eax
    29d4:	74 2e                	je     2a04 <phase_7+0x71>
    29d6:	b9 00 00 00 00       	mov    $0x0,%ecx
    29db:	ba 00 00 00 00       	mov    $0x0,%edx
    29e0:	83 c2 01             	add    $0x1,%edx
    29e3:	8b 04 85 40 42 00 00 	mov    0x4240(,%eax,4),%eax
    29ea:	01 c1                	add    %eax,%ecx
    29ec:	83 f8 0f             	cmp    $0xf,%eax
    29ef:	75 ef                	jne    29e0 <phase_7+0x4d>
    29f1:	c7 44 24 04 0f 00 00 	movl   $0xf,0x4(%esp)
    29f8:	00 
    29f9:	83 fa 0f             	cmp    $0xf,%edx
    29fc:	75 06                	jne    2a04 <phase_7+0x71>
    29fe:	39 4c 24 08          	cmp    %ecx,0x8(%esp)
    2a02:	74 05                	je     2a09 <phase_7+0x76>
    2a04:	e8 1e 05 00 00       	call   2f27 <explode_bomb>
    2a09:	8b 44 24 0c          	mov    0xc(%esp),%eax
    2a0d:	65 33 05 14 00 00 00 	xor    %gs:0x14,%eax
    2a14:	75 0b                	jne    2a21 <phase_7+0x8e>
    2a16:	83 c4 1c             	add    $0x1c,%esp
    2a19:	c3                   	ret    
    2a1a:	e8 08 05 00 00       	call   2f27 <explode_bomb>
    2a1f:	eb a5                	jmp    29c6 <phase_7+0x33>
    2a21:	e8 fc ff ff ff       	call   2a22 <phase_7+0x8f>

00002a26 <phase_8>:
    2a26:	f3 0f 1e fb          	endbr32 
    2a2a:	55                   	push   %ebp
    2a2b:	57                   	push   %edi
    2a2c:	56                   	push   %esi
    2a2d:	53                   	push   %ebx
    2a2e:	83 ec 64             	sub    $0x64,%esp
    2a31:	65 a1 14 00 00 00    	mov    %gs:0x14,%eax
    2a37:	89 44 24 54          	mov    %eax,0x54(%esp)
    2a3b:	31 c0                	xor    %eax,%eax
    2a3d:	8d 44 24 24          	lea    0x24(%esp),%eax
    2a41:	50                   	push   %eax
    2a42:	ff 74 24 7c          	pushl  0x7c(%esp)
    2a46:	e8 1f 05 00 00       	call   2f6a <read_six_numbers>  // READ SIX NUMBERS
    2a4b:	8d 6c 24 30          	lea    0x30(%esp),%ebp
    2a4f:	83 c4 10             	add    $0x10,%esp
    2a52:	c7 44 24 0c 00 00 00 	movl   $0x0,0xc(%esp)
    2a59:	00 
    2a5a:	8d 7c 24 34          	lea    0x34(%esp),%edi
    2a5e:	eb 1f                	jmp    2a7f <phase_8+0x59>
    2a60:	e8 c2 04 00 00       	call   2f27 <explode_bomb> // BOOOOMM
    2a65:	eb 25                	jmp    2a8c <phase_8+0x66>
    2a67:	83 c3 04             	add    $0x4,%ebx
    2a6a:	39 df                	cmp    %ebx,%edi
    2a6c:	74 0e                	je     2a7c <phase_8+0x56>
    2a6e:	8b 03                	mov    (%ebx),%eax
    2a70:	39 46 fc             	cmp    %eax,-0x4(%esi)
    2a73:	75 f2                	jne    2a67 <phase_8+0x41>
    2a75:	e8 ad 04 00 00       	call   2f27 <explode_bomb>
    2a7a:	eb eb                	jmp    2a67 <phase_8+0x41>
    2a7c:	83 c5 04             	add    $0x4,%ebp
    2a7f:	89 ee                	mov    %ebp,%esi
    2a81:	8b 45 fc             	mov    -0x4(%ebp),%eax
    2a84:	83 e8 01             	sub    $0x1,%eax
    2a87:	83 f8 05             	cmp    $0x5,%eax
    2a8a:	77 d4                	ja     2a60 <phase_8+0x3a>
    2a8c:	83 44 24 0c 01       	addl   $0x1,0xc(%esp)
    2a91:	8b 44 24 0c          	mov    0xc(%esp),%eax
    2a95:	83 f8 05             	cmp    $0x5,%eax
    2a98:	7f 04                	jg     2a9e <phase_8+0x78>
    2a9a:	89 eb                	mov    %ebp,%ebx
    2a9c:	eb d0                	jmp    2a6e <phase_8+0x48>
    2a9e:	bb 00 00 00 00       	mov    $0x0,%ebx
    2aa3:	89 de                	mov    %ebx,%esi
    2aa5:	8b 4c 9c 1c          	mov    0x1c(%esp,%ebx,4),%ecx
    2aa9:	b8 01 00 00 00       	mov    $0x1,%eax
    2aae:	ba d4 70 00 00       	mov    $0x70d4,%edx
    2ab3:	83 f9 01             	cmp    $0x1,%ecx
    2ab6:	7e 0a                	jle    2ac2 <phase_8+0x9c>
    2ab8:	8b 52 08             	mov    0x8(%edx),%edx
    2abb:	83 c0 01             	add    $0x1,%eax
    2abe:	39 c8                	cmp    %ecx,%eax
    2ac0:	75 f6                	jne    2ab8 <phase_8+0x92>
    2ac2:	89 54 b4 34          	mov    %edx,0x34(%esp,%esi,4)
    2ac6:	83 c3 01             	add    $0x1,%ebx
    2ac9:	83 fb 06             	cmp    $0x6,%ebx
    2acc:	75 d5                	jne    2aa3 <phase_8+0x7d>
    2ace:	8b 5c 24 34          	mov    0x34(%esp),%ebx
    2ad2:	8b 44 24 38          	mov    0x38(%esp),%eax
    2ad6:	89 43 08             	mov    %eax,0x8(%ebx)
    2ad9:	8b 54 24 3c          	mov    0x3c(%esp),%edx
    2add:	89 50 08             	mov    %edx,0x8(%eax)
    2ae0:	8b 44 24 40          	mov    0x40(%esp),%eax
    2ae4:	89 42 08             	mov    %eax,0x8(%edx)
    2ae7:	8b 54 24 44          	mov    0x44(%esp),%edx
    2aeb:	89 50 08             	mov    %edx,0x8(%eax)
    2aee:	8b 44 24 48          	mov    0x48(%esp),%eax
    2af2:	89 42 08             	mov    %eax,0x8(%edx)
    2af5:	c7 40 08 00 00 00 00 	movl   $0x0,0x8(%eax)
    2afc:	be 05 00 00 00       	mov    $0x5,%esi
    2b01:	eb 08                	jmp    2b0b <phase_8+0xe5>
    2b03:	8b 5b 08             	mov    0x8(%ebx),%ebx
    2b06:	83 ee 01             	sub    $0x1,%esi
    2b09:	74 10                	je     2b1b <phase_8+0xf5>
    2b0b:	8b 43 08             	mov    0x8(%ebx),%eax
    2b0e:	8b 00                	mov    (%eax),%eax
    2b10:	39 03                	cmp    %eax,(%ebx)
    2b12:	7e ef                	jle    2b03 <phase_8+0xdd>
    2b14:	e8 0e 04 00 00       	call   2f27 <explode_bomb>
    2b19:	eb e8                	jmp    2b03 <phase_8+0xdd>
    2b1b:	8b 44 24 4c          	mov    0x4c(%esp),%eax
    2b1f:	65 33 05 14 00 00 00 	xor    %gs:0x14,%eax
    2b26:	75 08                	jne    2b30 <phase_8+0x10a>
    2b28:	83 c4 5c             	add    $0x5c,%esp
    2b2b:	5b                   	pop    %ebx
    2b2c:	5e                   	pop    %esi
    2b2d:	5f                   	pop    %edi
    2b2e:	5d                   	pop    %ebp
    2b2f:	c3                   	ret    
    2b30:	e8 fc ff ff ff       	call   2b31 <phase_8+0x10b>

00002b35 <fun9>:
    2b35:	f3 0f 1e fb          	endbr32 
    2b39:	53                   	push   %ebx
    2b3a:	83 ec 08             	sub    $0x8,%esp
    2b3d:	8b 54 24 10          	mov    0x10(%esp),%edx
    2b41:	8b 4c 24 14          	mov    0x14(%esp),%ecx
    2b45:	85 d2                	test   %edx,%edx
    2b47:	74 3a                	je     2b83 <fun9+0x4e>
    2b49:	8b 1a                	mov    (%edx),%ebx
    2b4b:	39 cb                	cmp    %ecx,%ebx
    2b4d:	7f 0c                	jg     2b5b <fun9+0x26>
    2b4f:	b8 00 00 00 00       	mov    $0x0,%eax
    2b54:	75 18                	jne    2b6e <fun9+0x39>
    2b56:	83 c4 08             	add    $0x8,%esp
    2b59:	5b                   	pop    %ebx
    2b5a:	c3                   	ret    
    2b5b:	83 ec 08             	sub    $0x8,%esp
    2b5e:	51                   	push   %ecx
    2b5f:	ff 72 04             	pushl  0x4(%edx)
    2b62:	e8 ce ff ff ff       	call   2b35 <fun9>
    2b67:	83 c4 10             	add    $0x10,%esp
    2b6a:	01 c0                	add    %eax,%eax
    2b6c:	eb e8                	jmp    2b56 <fun9+0x21>
    2b6e:	83 ec 08             	sub    $0x8,%esp
    2b71:	51                   	push   %ecx
    2b72:	ff 72 08             	pushl  0x8(%edx)
    2b75:	e8 bb ff ff ff       	call   2b35 <fun9>
    2b7a:	83 c4 10             	add    $0x10,%esp
    2b7d:	8d 44 00 01          	lea    0x1(%eax,%eax,1),%eax
    2b81:	eb d3                	jmp    2b56 <fun9+0x21>
    2b83:	b8 ff ff ff ff       	mov    $0xffffffff,%eax
    2b88:	eb cc                	jmp    2b56 <fun9+0x21>

00002b8a <phase_9>:
    2b8a:	f3 0f 1e fb          	endbr32 
    2b8e:	53                   	push   %ebx
    2b8f:	83 ec 0c             	sub    $0xc,%esp
    2b92:	6a 0a                	push   $0xa
    2b94:	6a 00                	push   $0x0
    2b96:	ff 74 24 1c          	pushl  0x1c(%esp)
    2b9a:	e8 fc ff ff ff       	call   2b9b <phase_9+0x11>
    2b9f:	89 c3                	mov    %eax,%ebx
    2ba1:	8d 40 ff             	lea    -0x1(%eax),%eax
    2ba4:	83 c4 10             	add    $0x10,%esp
    2ba7:	3d e8 03 00 00       	cmp    $0x3e8,%eax
    2bac:	77 1b                	ja     2bc9 <phase_9+0x3f>
    2bae:	83 ec 08             	sub    $0x8,%esp
    2bb1:	53                   	push   %ebx
    2bb2:	68 20 70 00 00       	push   $0x7020
    2bb7:	e8 79 ff ff ff       	call   2b35 <fun9>
    2bbc:	83 c4 10             	add    $0x10,%esp
    2bbf:	83 f8 03             	cmp    $0x3,%eax
    2bc2:	75 0c                	jne    2bd0 <phase_9+0x46>
    2bc4:	83 c4 08             	add    $0x8,%esp
    2bc7:	5b                   	pop    %ebx
    2bc8:	c3                   	ret    
    2bc9:	e8 59 03 00 00       	call   2f27 <explode_bomb>
    2bce:	eb de                	jmp    2bae <phase_9+0x24>
    2bd0:	e8 52 03 00 00       	call   2f27 <explode_bomb>
    2bd5:	eb ed                	jmp    2bc4 <phase_9+0x3a>

00002bd7 <sig_handler>:
    2bd7:	f3 0f 1e fb          	endbr32 
    2bdb:	56                   	push   %esi
    2bdc:	5e                   	pop    %esi
    2bdd:	83 ec 18             	sub    $0x18,%esp
    2be0:	68 80 42 00 00       	push   $0x4280
    2be5:	e8 fc ff ff ff       	call   2be6 <sig_handler+0xf>
    2bea:	c7 04 24 03 00 00 00 	movl   $0x3,(%esp)
    2bf1:	e8 fc ff ff ff       	call   2bf2 <sig_handler+0x1b>
    2bf6:	83 c4 08             	add    $0x8,%esp
    2bf9:	68 b9 43 00 00       	push   $0x43b9
    2bfe:	6a 01                	push   $0x1
    2c00:	e8 fc ff ff ff       	call   2c01 <sig_handler+0x2a>
    2c05:	83 c4 04             	add    $0x4,%esp
    2c08:	ff 35 00 00 00 00    	pushl  0x0
    2c0e:	e8 fc ff ff ff       	call   2c0f <sig_handler+0x38>
    2c13:	c7 04 24 01 00 00 00 	movl   $0x1,(%esp)
    2c1a:	e8 fc ff ff ff       	call   2c1b <sig_handler+0x44>
    2c1f:	c7 04 24 c1 43 00 00 	movl   $0x43c1,(%esp)
    2c26:	e8 fc ff ff ff       	call   2c27 <sig_handler+0x50>
    2c2b:	c7 04 24 10 00 00 00 	movl   $0x10,(%esp)
    2c32:	e8 fc ff ff ff       	call   2c33 <sig_handler+0x5c>

00002c37 <invalid_phase>:
    2c37:	f3 0f 1e fb          	endbr32 
    2c3b:	56                   	push   %esi
    2c3c:	5e                   	pop    %esi
    2c3d:	83 ec 10             	sub    $0x10,%esp
    2c40:	ff 74 24 14          	pushl  0x14(%esp)
    2c44:	68 c9 43 00 00       	push   $0x43c9
    2c49:	6a 01                	push   $0x1
    2c4b:	e8 fc ff ff ff       	call   2c4c <invalid_phase+0x15>
    2c50:	c7 04 24 08 00 00 00 	movl   $0x8,(%esp)
    2c57:	e8 fc ff ff ff       	call   2c58 <invalid_phase+0x21>

00002c5c <string_length>:
    2c5c:	f3 0f 1e fb          	endbr32 
    2c60:	8b 54 24 04          	mov    0x4(%esp),%edx
    2c64:	80 3a 00             	cmpb   $0x0,(%edx)
    2c67:	74 0f                	je     2c78 <string_length+0x1c>
    2c69:	b8 00 00 00 00       	mov    $0x0,%eax
    2c6e:	83 c0 01             	add    $0x1,%eax
    2c71:	80 3c 02 00          	cmpb   $0x0,(%edx,%eax,1)
    2c75:	75 f7                	jne    2c6e <string_length+0x12>
    2c77:	c3                   	ret    
    2c78:	b8 00 00 00 00       	mov    $0x0,%eax
    2c7d:	c3                   	ret    

00002c7e <strings_not_equal>:
    2c7e:	f3 0f 1e fb          	endbr32 
    2c82:	57                   	push   %edi
    2c83:	56                   	push   %esi
    2c84:	53                   	push   %ebx
    2c85:	8b 5c 24 10          	mov    0x10(%esp),%ebx
    2c89:	8b 74 24 14          	mov    0x14(%esp),%esi
    2c8d:	53                   	push   %ebx
    2c8e:	e8 c9 ff ff ff       	call   2c5c <string_length>
    2c93:	89 c7                	mov    %eax,%edi
    2c95:	89 34 24             	mov    %esi,(%esp)
    2c98:	e8 bf ff ff ff       	call   2c5c <string_length>
    2c9d:	83 c4 04             	add    $0x4,%esp
    2ca0:	89 c2                	mov    %eax,%edx
    2ca2:	b8 01 00 00 00       	mov    $0x1,%eax
    2ca7:	39 d7                	cmp    %edx,%edi
    2ca9:	75 2b                	jne    2cd6 <strings_not_equal+0x58>
    2cab:	0f b6 03             	movzbl (%ebx),%eax
    2cae:	84 c0                	test   %al,%al
    2cb0:	74 18                	je     2cca <strings_not_equal+0x4c>
    2cb2:	38 06                	cmp    %al,(%esi)
    2cb4:	75 1b                	jne    2cd1 <strings_not_equal+0x53>
    2cb6:	83 c3 01             	add    $0x1,%ebx
    2cb9:	83 c6 01             	add    $0x1,%esi
    2cbc:	0f b6 03             	movzbl (%ebx),%eax
    2cbf:	84 c0                	test   %al,%al
    2cc1:	75 ef                	jne    2cb2 <strings_not_equal+0x34>
    2cc3:	b8 00 00 00 00       	mov    $0x0,%eax
    2cc8:	eb 0c                	jmp    2cd6 <strings_not_equal+0x58>
    2cca:	b8 00 00 00 00       	mov    $0x0,%eax
    2ccf:	eb 05                	jmp    2cd6 <strings_not_equal+0x58>
    2cd1:	b8 01 00 00 00       	mov    $0x1,%eax
    2cd6:	5b                   	pop    %ebx
    2cd7:	5e                   	pop    %esi
    2cd8:	5f                   	pop    %edi
    2cd9:	c3                   	ret    

00002cda <initialize_bomb>:
    2cda:	f3 0f 1e fb          	endbr32 
    2cde:	56                   	push   %esi
    2cdf:	53                   	push   %ebx
    2ce0:	81 ec 00 10 00 00    	sub    $0x1000,%esp
    2ce6:	83 0c 24 00          	orl    $0x0,(%esp)
    2cea:	81 ec 00 10 00 00    	sub    $0x1000,%esp
    2cf0:	83 0c 24 00          	orl    $0x0,(%esp)
    2cf4:	83 ec 5c             	sub    $0x5c,%esp
    2cf7:	65 a1 14 00 00 00    	mov    %gs:0x14,%eax
    2cfd:	89 84 24 54 20 00 00 	mov    %eax,0x2054(%esp)
    2d04:	31 c0                	xor    %eax,%eax
    2d06:	68 d7 2b 00 00       	push   $0x2bd7
    2d0b:	6a 02                	push   $0x2
    2d0d:	e8 fc ff ff ff       	call   2d0e <initialize_bomb+0x34>
    2d12:	83 c4 08             	add    $0x8,%esp
    2d15:	6a 40                	push   $0x40
    2d17:	8d 44 24 18          	lea    0x18(%esp),%eax
    2d1b:	50                   	push   %eax
    2d1c:	e8 fc ff ff ff       	call   2d1d <initialize_bomb+0x43>
    2d21:	83 c4 10             	add    $0x10,%esp
    2d24:	85 c0                	test   %eax,%eax
    2d26:	75 47                	jne    2d6f <initialize_bomb+0x95>
    2d28:	89 c3                	mov    %eax,%ebx
    2d2a:	a1 40 75 00 00       	mov    0x7540,%eax
    2d2f:	8d 74 24 0c          	lea    0xc(%esp),%esi
    2d33:	85 c0                	test   %eax,%eax
    2d35:	74 1f                	je     2d56 <initialize_bomb+0x7c>
    2d37:	83 ec 08             	sub    $0x8,%esp
    2d3a:	56                   	push   %esi
    2d3b:	50                   	push   %eax
    2d3c:	e8 fc ff ff ff       	call   2d3d <initialize_bomb+0x63>
    2d41:	83 c4 10             	add    $0x10,%esp
    2d44:	85 c0                	test   %eax,%eax
    2d46:	74 60                	je     2da8 <initialize_bomb+0xce>
    2d48:	83 c3 01             	add    $0x1,%ebx
    2d4b:	8b 04 9d 40 75 00 00 	mov    0x7540(,%ebx,4),%eax
    2d52:	85 c0                	test   %eax,%eax
    2d54:	75 e1                	jne    2d37 <initialize_bomb+0x5d>
    2d56:	83 ec 0c             	sub    $0xc,%esp
    2d59:	68 f0 42 00 00       	push   $0x42f0
    2d5e:	e8 fc ff ff ff       	call   2d5f <initialize_bomb+0x85>
    2d63:	c7 04 24 08 00 00 00 	movl   $0x8,(%esp)
    2d6a:	e8 fc ff ff ff       	call   2d6b <initialize_bomb+0x91>
    2d6f:	83 ec 0c             	sub    $0xc,%esp
    2d72:	68 b8 42 00 00       	push   $0x42b8
    2d77:	e8 fc ff ff ff       	call   2d78 <initialize_bomb+0x9e>
    2d7c:	c7 04 24 08 00 00 00 	movl   $0x8,(%esp)
    2d83:	e8 fc ff ff ff       	call   2d84 <initialize_bomb+0xaa>
    2d88:	83 ec 04             	sub    $0x4,%esp
    2d8b:	8d 44 24 50          	lea    0x50(%esp),%eax
    2d8f:	50                   	push   %eax
    2d90:	68 da 43 00 00       	push   $0x43da
    2d95:	6a 01                	push   $0x1
    2d97:	e8 fc ff ff ff       	call   2d98 <initialize_bomb+0xbe>
    2d9c:	c7 04 24 08 00 00 00 	movl   $0x8,(%esp)
    2da3:	e8 fc ff ff ff       	call   2da4 <initialize_bomb+0xca>
    2da8:	83 ec 0c             	sub    $0xc,%esp
    2dab:	8d 44 24 58          	lea    0x58(%esp),%eax
    2daf:	50                   	push   %eax
    2db0:	e8 19 0c 00 00       	call   39ce <init_driver>
    2db5:	83 c4 10             	add    $0x10,%esp
    2db8:	85 c0                	test   %eax,%eax
    2dba:	78 cc                	js     2d88 <initialize_bomb+0xae>
    2dbc:	8b 84 24 4c 20 00 00 	mov    0x204c(%esp),%eax
    2dc3:	65 33 05 14 00 00 00 	xor    %gs:0x14,%eax
    2dca:	75 09                	jne    2dd5 <initialize_bomb+0xfb>
    2dcc:	81 c4 54 20 00 00    	add    $0x2054,%esp
    2dd2:	5b                   	pop    %ebx
    2dd3:	5e                   	pop    %esi
    2dd4:	c3                   	ret    
    2dd5:	e8 fc ff ff ff       	call   2dd6 <initialize_bomb+0xfc>

00002dda <initialize_bomb_solve>:
    2dda:	f3 0f 1e fb          	endbr32 
    2dde:	c3                   	ret    

00002ddf <blank_line>:
    2ddf:	f3 0f 1e fb          	endbr32 
    2de3:	56                   	push   %esi
    2de4:	53                   	push   %ebx
    2de5:	83 ec 04             	sub    $0x4,%esp
    2de8:	8b 74 24 10          	mov    0x10(%esp),%esi
    2dec:	0f b6 1e             	movzbl (%esi),%ebx
    2def:	84 db                	test   %bl,%bl
    2df1:	74 1b                	je     2e0e <blank_line+0x2f>
    2df3:	e8 fc ff ff ff       	call   2df4 <blank_line+0x15>
    2df8:	83 c6 01             	add    $0x1,%esi
    2dfb:	0f be db             	movsbl %bl,%ebx
    2dfe:	8b 00                	mov    (%eax),%eax
    2e00:	f6 44 58 01 20       	testb  $0x20,0x1(%eax,%ebx,2)
    2e05:	75 e5                	jne    2dec <blank_line+0xd>
    2e07:	b8 00 00 00 00       	mov    $0x0,%eax
    2e0c:	eb 05                	jmp    2e13 <blank_line+0x34>
    2e0e:	b8 01 00 00 00       	mov    $0x1,%eax
    2e13:	83 c4 04             	add    $0x4,%esp
    2e16:	5b                   	pop    %ebx
    2e17:	5e                   	pop    %esi
    2e18:	c3                   	ret    

00002e19 <skip>:
    2e19:	f3 0f 1e fb          	endbr32 
    2e1d:	53                   	push   %ebx
    2e1e:	83 ec 08             	sub    $0x8,%esp
    2e21:	83 ec 04             	sub    $0x4,%esp
    2e24:	ff 35 70 77 00 00    	pushl  0x7770
    2e2a:	6a 55                	push   $0x55
    2e2c:	6b 05 6c 77 00 00 55 	imul   $0x55,0x776c,%eax
    2e33:	05 80 77 00 00       	add    $0x7780,%eax
    2e38:	50                   	push   %eax
    2e39:	e8 fc ff ff ff       	call   2e3a <skip+0x21>
    2e3e:	89 c3                	mov    %eax,%ebx
    2e40:	83 c4 10             	add    $0x10,%esp
    2e43:	85 c0                	test   %eax,%eax
    2e45:	74 10                	je     2e57 <skip+0x3e>
    2e47:	83 ec 0c             	sub    $0xc,%esp
    2e4a:	50                   	push   %eax
    2e4b:	e8 8f ff ff ff       	call   2ddf <blank_line>
    2e50:	83 c4 10             	add    $0x10,%esp
    2e53:	85 c0                	test   %eax,%eax
    2e55:	75 ca                	jne    2e21 <skip+0x8>
    2e57:	89 d8                	mov    %ebx,%eax
    2e59:	83 c4 08             	add    $0x8,%esp
    2e5c:	5b                   	pop    %ebx
    2e5d:	c3                   	ret    

00002e5e <send_msg>:
    2e5e:	f3 0f 1e fb          	endbr32 
    2e62:	53                   	push   %ebx
    2e63:	8d 84 24 00 c0 ff ff 	lea    -0x4000(%esp),%eax
    2e6a:	81 ec 00 10 00 00    	sub    $0x1000,%esp
    2e70:	83 0c 24 00          	orl    $0x0,(%esp)
    2e74:	39 c4                	cmp    %eax,%esp
    2e76:	75 f2                	jne    2e6a <send_msg+0xc>
    2e78:	83 ec 18             	sub    $0x18,%esp
    2e7b:	65 a1 14 00 00 00    	mov    %gs:0x14,%eax
    2e81:	89 84 24 0c 40 00 00 	mov    %eax,0x400c(%esp)
    2e88:	31 c0                	xor    %eax,%eax
    2e8a:	8b 0d 6c 77 00 00    	mov    0x776c,%ecx
    2e90:	8d 41 ff             	lea    -0x1(%ecx),%eax
    2e93:	6b c0 55             	imul   $0x55,%eax,%eax
    2e96:	05 80 77 00 00       	add    $0x7780,%eax
    2e9b:	83 bc 24 20 40 00 00 	cmpl   $0x0,0x4020(%esp)
    2ea2:	00 
    2ea3:	ba f4 43 00 00       	mov    $0x43f4,%edx
    2ea8:	bb fc 43 00 00       	mov    $0x43fc,%ebx
    2ead:	0f 44 d3             	cmove  %ebx,%edx
    2eb0:	50                   	push   %eax
    2eb1:	51                   	push   %ecx
    2eb2:	52                   	push   %edx
    2eb3:	ff 35 20 75 00 00    	pushl  0x7520
    2eb9:	68 05 44 00 00       	push   $0x4405
    2ebe:	68 00 20 00 00       	push   $0x2000
    2ec3:	6a 01                	push   $0x1
    2ec5:	8d 5c 24 28          	lea    0x28(%esp),%ebx
    2ec9:	53                   	push   %ebx
    2eca:	e8 fc ff ff ff       	call   2ecb <send_msg+0x6d>
    2ecf:	83 c4 20             	add    $0x20,%esp
    2ed2:	8d 84 24 0c 20 00 00 	lea    0x200c(%esp),%eax
    2ed9:	50                   	push   %eax
    2eda:	6a 00                	push   $0x0
    2edc:	53                   	push   %ebx
    2edd:	68 20 71 00 00       	push   $0x7120
    2ee2:	e8 cd 0c 00 00       	call   3bb4 <driver_post>
    2ee7:	83 c4 10             	add    $0x10,%esp
    2eea:	85 c0                	test   %eax,%eax
    2eec:	78 18                	js     2f06 <send_msg+0xa8>
    2eee:	8b 84 24 0c 40 00 00 	mov    0x400c(%esp),%eax
    2ef5:	65 33 05 14 00 00 00 	xor    %gs:0x14,%eax
    2efc:	75 24                	jne    2f22 <send_msg+0xc4>
    2efe:	81 c4 18 40 00 00    	add    $0x4018,%esp
    2f04:	5b                   	pop    %ebx
    2f05:	c3                   	ret    
    2f06:	83 ec 0c             	sub    $0xc,%esp
    2f09:	8d 84 24 18 20 00 00 	lea    0x2018(%esp),%eax
    2f10:	50                   	push   %eax
    2f11:	e8 fc ff ff ff       	call   2f12 <send_msg+0xb4>
    2f16:	c7 04 24 00 00 00 00 	movl   $0x0,(%esp)
    2f1d:	e8 fc ff ff ff       	call   2f1e <send_msg+0xc0>
    2f22:	e8 fc ff ff ff       	call   2f23 <send_msg+0xc5>

00002f27 <explode_bomb>:
    2f27:	f3 0f 1e fb          	endbr32 
    2f2b:	56                   	push   %esi
    2f2c:	5e                   	pop    %esi
    2f2d:	83 ec 18             	sub    $0x18,%esp
    2f30:	68 11 44 00 00       	push   $0x4411
    2f35:	e8 fc ff ff ff       	call   2f36 <explode_bomb+0xf>
    2f3a:	c7 04 24 1a 44 00 00 	movl   $0x441a,(%esp)
    2f41:	e8 fc ff ff ff       	call   2f42 <explode_bomb+0x1b>
    2f46:	c7 04 24 00 00 00 00 	movl   $0x0,(%esp)
    2f4d:	e8 0c ff ff ff       	call   2e5e <send_msg>
    2f52:	c7 04 24 28 43 00 00 	movl   $0x4328,(%esp)
    2f59:	e8 fc ff ff ff       	call   2f5a <explode_bomb+0x33>
    2f5e:	c7 04 24 08 00 00 00 	movl   $0x8,(%esp)
    2f65:	e8 fc ff ff ff       	call   2f66 <explode_bomb+0x3f>

00002f6a <read_six_numbers>:
    2f6a:	f3 0f 1e fb          	endbr32 
    2f6e:	83 ec 0c             	sub    $0xc,%esp
    2f71:	8b 44 24 14          	mov    0x14(%esp),%eax
    2f75:	8d 50 14             	lea    0x14(%eax),%edx
    2f78:	52                   	push   %edx
    2f79:	8d 50 10             	lea    0x10(%eax),%edx
    2f7c:	52                   	push   %edx
    2f7d:	8d 50 0c             	lea    0xc(%eax),%edx
    2f80:	52                   	push   %edx
    2f81:	8d 50 08             	lea    0x8(%eax),%edx
    2f84:	52                   	push   %edx
    2f85:	8d 50 04             	lea    0x4(%eax),%edx
    2f88:	52                   	push   %edx
    2f89:	50                   	push   %eax
    2f8a:	68 31 44 00 00       	push   $0x4431
    2f8f:	ff 74 24 2c          	pushl  0x2c(%esp)
    2f93:	e8 fc ff ff ff       	call   2f94 <read_six_numbers+0x2a>
    2f98:	83 c4 20             	add    $0x20,%esp
    2f9b:	83 f8 05             	cmp    $0x5,%eax
    2f9e:	7e 04                	jle    2fa4 <read_six_numbers+0x3a>
    2fa0:	83 c4 0c             	add    $0xc,%esp
    2fa3:	c3                   	ret    
    2fa4:	e8 7e ff ff ff       	call   2f27 <explode_bomb>

00002fa9 <read_line>:
    2fa9:	f3 0f 1e fb          	endbr32 
    2fad:	57                   	push   %edi
    2fae:	56                   	push   %esi
    2faf:	53                   	push   %ebx
    2fb0:	e8 64 fe ff ff       	call   2e19 <skip>
    2fb5:	85 c0                	test   %eax,%eax
    2fb7:	74 45                	je     2ffe <read_line+0x55>
    2fb9:	8b 15 6c 77 00 00    	mov    0x776c,%edx
    2fbf:	6b da 55             	imul   $0x55,%edx,%ebx
    2fc2:	81 c3 80 77 00 00    	add    $0x7780,%ebx
    2fc8:	b9 ff ff ff ff       	mov    $0xffffffff,%ecx
    2fcd:	b8 00 00 00 00       	mov    $0x0,%eax
    2fd2:	89 df                	mov    %ebx,%edi
    2fd4:	f2 ae                	repnz scas %es:(%edi),%al
    2fd6:	f7 d1                	not    %ecx
    2fd8:	83 e9 01             	sub    $0x1,%ecx
    2fdb:	83 f9 53             	cmp    $0x53,%ecx
    2fde:	0f 8f 8e 00 00 00    	jg     3072 <read_line+0xc9>
    2fe4:	6b c2 55             	imul   $0x55,%edx,%eax
    2fe7:	c6 84 01 7f 77 00 00 	movb   $0x0,0x777f(%ecx,%eax,1)
    2fee:	00 
    2fef:	83 c2 01             	add    $0x1,%edx
    2ff2:	89 15 6c 77 00 00    	mov    %edx,0x776c
    2ff8:	89 d8                	mov    %ebx,%eax
    2ffa:	5b                   	pop    %ebx
    2ffb:	5e                   	pop    %esi
    2ffc:	5f                   	pop    %edi
    2ffd:	c3                   	ret    
    2ffe:	a1 00 00 00 00       	mov    0x0,%eax
    3003:	39 05 70 77 00 00    	cmp    %eax,0x7770
    3009:	74 1e                	je     3029 <read_line+0x80>
    300b:	83 ec 0c             	sub    $0xc,%esp
    300e:	68 61 44 00 00       	push   $0x4461
    3013:	e8 fc ff ff ff       	call   3014 <read_line+0x6b>
    3018:	83 c4 10             	add    $0x10,%esp
    301b:	85 c0                	test   %eax,%eax
    301d:	74 23                	je     3042 <read_line+0x99>
    301f:	83 ec 0c             	sub    $0xc,%esp
    3022:	6a 00                	push   $0x0
    3024:	e8 fc ff ff ff       	call   3025 <read_line+0x7c>
    3029:	83 ec 0c             	sub    $0xc,%esp
    302c:	68 43 44 00 00       	push   $0x4443
    3031:	e8 fc ff ff ff       	call   3032 <read_line+0x89>
    3036:	c7 04 24 08 00 00 00 	movl   $0x8,(%esp)
    303d:	e8 fc ff ff ff       	call   303e <read_line+0x95>
    3042:	a1 00 00 00 00       	mov    0x0,%eax
    3047:	a3 70 77 00 00       	mov    %eax,0x7770
    304c:	e8 c8 fd ff ff       	call   2e19 <skip>
    3051:	85 c0                	test   %eax,%eax
    3053:	0f 85 60 ff ff ff    	jne    2fb9 <read_line+0x10>
    3059:	83 ec 0c             	sub    $0xc,%esp
    305c:	68 43 44 00 00       	push   $0x4443
    3061:	e8 fc ff ff ff       	call   3062 <read_line+0xb9>
    3066:	c7 04 24 00 00 00 00 	movl   $0x0,(%esp)
    306d:	e8 fc ff ff ff       	call   306e <read_line+0xc5>
    3072:	83 ec 0c             	sub    $0xc,%esp
    3075:	68 6c 44 00 00       	push   $0x446c
    307a:	e8 fc ff ff ff       	call   307b <read_line+0xd2>
    307f:	a1 6c 77 00 00       	mov    0x776c,%eax
    3084:	8d 50 01             	lea    0x1(%eax),%edx
    3087:	89 15 6c 77 00 00    	mov    %edx,0x776c
    308d:	6b c0 55             	imul   $0x55,%eax,%eax
    3090:	05 80 77 00 00       	add    $0x7780,%eax
    3095:	ba 87 44 00 00       	mov    $0x4487,%edx
    309a:	b9 04 00 00 00       	mov    $0x4,%ecx
    309f:	89 c7                	mov    %eax,%edi
    30a1:	89 d6                	mov    %edx,%esi
    30a3:	f3 a5                	rep movsl %ds:(%esi),%es:(%edi)
    30a5:	e8 7d fe ff ff       	call   2f27 <explode_bomb>

000030aa <phase_defused>:
    30aa:	f3 0f 1e fb          	endbr32 
    30ae:	83 ec 18             	sub    $0x18,%esp
    30b1:	6a 01                	push   $0x1
    30b3:	e8 a6 fd ff ff       	call   2e5e <send_msg>
    30b8:	83 c4 10             	add    $0x10,%esp
    30bb:	83 3d 6c 77 00 00 09 	cmpl   $0x9,0x776c
    30c2:	74 04                	je     30c8 <phase_defused+0x1e>
    30c4:	83 c4 0c             	add    $0xc,%esp
    30c7:	c3                   	ret    
    30c8:	83 ec 0c             	sub    $0xc,%esp
    30cb:	68 4c 43 00 00       	push   $0x434c
    30d0:	e8 fc ff ff ff       	call   30d1 <phase_defused+0x27>
    30d5:	c7 04 24 78 43 00 00 	movl   $0x4378,(%esp)
    30dc:	e8 fc ff ff ff       	call   30dd <phase_defused+0x33>
    30e1:	83 c4 10             	add    $0x10,%esp
    30e4:	eb de                	jmp    30c4 <phase_defused+0x1a>

000030e6 <sigalrm_handler>:
    30e6:	f3 0f 1e fb          	endbr32 
    30ea:	56                   	push   %esi
    30eb:	5e                   	pop    %esi
    30ec:	83 ec 0c             	sub    $0xc,%esp
    30ef:	6a 00                	push   $0x0
    30f1:	68 10 47 00 00       	push   $0x4710
    30f6:	6a 01                	push   $0x1
    30f8:	ff 35 00 00 00 00    	pushl  0x0
    30fe:	e8 fc ff ff ff       	call   30ff <sigalrm_handler+0x19>
    3103:	c7 04 24 01 00 00 00 	movl   $0x1,(%esp)
    310a:	e8 fc ff ff ff       	call   310b <sigalrm_handler+0x25>

0000310f <rio_readlineb>:
    310f:	55                   	push   %ebp
    3110:	57                   	push   %edi
    3111:	56                   	push   %esi
    3112:	53                   	push   %ebx
    3113:	83 ec 1c             	sub    $0x1c,%esp
    3116:	89 d6                	mov    %edx,%esi
    3118:	83 f9 01             	cmp    $0x1,%ecx
    311b:	76 7e                	jbe    319b <rio_readlineb+0x8c>
    311d:	89 c3                	mov    %eax,%ebx
    311f:	8d 44 0a ff          	lea    -0x1(%edx,%ecx,1),%eax
    3123:	89 44 24 0c          	mov    %eax,0xc(%esp)
    3127:	bd 01 00 00 00       	mov    $0x1,%ebp
    312c:	8d 7b 0c             	lea    0xc(%ebx),%edi
    312f:	eb 4f                	jmp    3180 <rio_readlineb+0x71>
    3131:	e8 fc ff ff ff       	call   3132 <rio_readlineb+0x23>
    3136:	83 38 04             	cmpl   $0x4,(%eax)
    3139:	75 4e                	jne    3189 <rio_readlineb+0x7a>
    313b:	83 ec 04             	sub    $0x4,%esp
    313e:	68 00 20 00 00       	push   $0x2000
    3143:	57                   	push   %edi
    3144:	ff 33                	pushl  (%ebx)
    3146:	e8 fc ff ff ff       	call   3147 <rio_readlineb+0x38>
    314b:	89 43 04             	mov    %eax,0x4(%ebx)
    314e:	83 c4 10             	add    $0x10,%esp
    3151:	85 c0                	test   %eax,%eax
    3153:	78 dc                	js     3131 <rio_readlineb+0x22>
    3155:	74 37                	je     318e <rio_readlineb+0x7f>
    3157:	89 7b 08             	mov    %edi,0x8(%ebx)
    315a:	8b 53 08             	mov    0x8(%ebx),%edx
    315d:	0f b6 0a             	movzbl (%edx),%ecx
    3160:	83 c2 01             	add    $0x1,%edx
    3163:	89 53 08             	mov    %edx,0x8(%ebx)
    3166:	83 e8 01             	sub    $0x1,%eax
    3169:	89 43 04             	mov    %eax,0x4(%ebx)
    316c:	83 c6 01             	add    $0x1,%esi
    316f:	88 4e ff             	mov    %cl,-0x1(%esi)
    3172:	80 f9 0a             	cmp    $0xa,%cl
    3175:	74 2f                	je     31a6 <rio_readlineb+0x97>
    3177:	83 c5 01             	add    $0x1,%ebp
    317a:	3b 74 24 0c          	cmp    0xc(%esp),%esi
    317e:	74 22                	je     31a2 <rio_readlineb+0x93>
    3180:	8b 43 04             	mov    0x4(%ebx),%eax
    3183:	85 c0                	test   %eax,%eax
    3185:	7e b4                	jle    313b <rio_readlineb+0x2c>
    3187:	eb d1                	jmp    315a <rio_readlineb+0x4b>
    3189:	b8 ff ff ff ff       	mov    $0xffffffff,%eax
    318e:	85 c0                	test   %eax,%eax
    3190:	75 21                	jne    31b3 <rio_readlineb+0xa4>
    3192:	83 fd 01             	cmp    $0x1,%ebp
    3195:	75 0f                	jne    31a6 <rio_readlineb+0x97>
    3197:	89 c5                	mov    %eax,%ebp
    3199:	eb 0e                	jmp    31a9 <rio_readlineb+0x9a>
    319b:	bd 01 00 00 00       	mov    $0x1,%ebp
    31a0:	eb 04                	jmp    31a6 <rio_readlineb+0x97>
    31a2:	8b 74 24 0c          	mov    0xc(%esp),%esi
    31a6:	c6 06 00             	movb   $0x0,(%esi)
    31a9:	89 e8                	mov    %ebp,%eax
    31ab:	83 c4 1c             	add    $0x1c,%esp
    31ae:	5b                   	pop    %ebx
    31af:	5e                   	pop    %esi
    31b0:	5f                   	pop    %edi
    31b1:	5d                   	pop    %ebp
    31b2:	c3                   	ret    
    31b3:	bd ff ff ff ff       	mov    $0xffffffff,%ebp
    31b8:	eb ef                	jmp    31a9 <rio_readlineb+0x9a>

000031ba <submitr>:
    31ba:	f3 0f 1e fb          	endbr32 
    31be:	55                   	push   %ebp
    31bf:	57                   	push   %edi
    31c0:	56                   	push   %esi
    31c1:	53                   	push   %ebx
    31c2:	8d 84 24 00 60 ff ff 	lea    -0xa000(%esp),%eax
    31c9:	81 ec 00 10 00 00    	sub    $0x1000,%esp
    31cf:	83 0c 24 00          	orl    $0x0,(%esp)
    31d3:	39 c4                	cmp    %eax,%esp
    31d5:	75 f2                	jne    31c9 <submitr+0xf>
    31d7:	83 ec 60             	sub    $0x60,%esp
    31da:	8b 9c 24 74 a0 00 00 	mov    0xa074(%esp),%ebx
    31e1:	8b 84 24 7c a0 00 00 	mov    0xa07c(%esp),%eax
    31e8:	89 44 24 10          	mov    %eax,0x10(%esp)
    31ec:	8b 84 24 80 a0 00 00 	mov    0xa080(%esp),%eax
    31f3:	89 44 24 14          	mov    %eax,0x14(%esp)
    31f7:	8b 84 24 84 a0 00 00 	mov    0xa084(%esp),%eax
    31fe:	89 44 24 18          	mov    %eax,0x18(%esp)
    3202:	8b ac 24 88 a0 00 00 	mov    0xa088(%esp),%ebp
    3209:	8b 84 24 8c a0 00 00 	mov    0xa08c(%esp),%eax
    3210:	89 44 24 1c          	mov    %eax,0x1c(%esp)
    3214:	65 a1 14 00 00 00    	mov    %gs:0x14,%eax
    321a:	89 84 24 50 a0 00 00 	mov    %eax,0xa050(%esp)
    3221:	31 c0                	xor    %eax,%eax
    3223:	c7 44 24 30 00 00 00 	movl   $0x0,0x30(%esp)
    322a:	00 
    322b:	6a 00                	push   $0x0
    322d:	6a 01                	push   $0x1
    322f:	6a 02                	push   $0x2
    3231:	e8 fc ff ff ff       	call   3232 <submitr+0x78>
    3236:	89 44 24 18          	mov    %eax,0x18(%esp)
    323a:	83 c4 10             	add    $0x10,%esp
    323d:	85 c0                	test   %eax,%eax
    323f:	0f 88 ff 00 00 00    	js     3344 <submitr+0x18a>
    3245:	83 ec 0c             	sub    $0xc,%esp
    3248:	53                   	push   %ebx
    3249:	e8 fc ff ff ff       	call   324a <submitr+0x90>
    324e:	83 c4 10             	add    $0x10,%esp
    3251:	85 c0                	test   %eax,%eax
    3253:	0f 84 3d 01 00 00    	je     3396 <submitr+0x1dc>
    3259:	8d 5c 24 30          	lea    0x30(%esp),%ebx
    325d:	c7 44 24 30 00 00 00 	movl   $0x0,0x30(%esp)
    3264:	00 
    3265:	c7 44 24 34 00 00 00 	movl   $0x0,0x34(%esp)
    326c:	00 
    326d:	c7 44 24 38 00 00 00 	movl   $0x0,0x38(%esp)
    3274:	00 
    3275:	c7 44 24 3c 00 00 00 	movl   $0x0,0x3c(%esp)
    327c:	00 
    327d:	66 c7 44 24 30 02 00 	movw   $0x2,0x30(%esp)
    3284:	6a 0c                	push   $0xc
    3286:	ff 70 0c             	pushl  0xc(%eax)
    3289:	8b 40 10             	mov    0x10(%eax),%eax
    328c:	ff 30                	pushl  (%eax)
    328e:	8d 44 24 40          	lea    0x40(%esp),%eax
    3292:	50                   	push   %eax
    3293:	e8 fc ff ff ff       	call   3294 <submitr+0xda>
    3298:	0f b7 84 24 84 a0 00 	movzwl 0xa084(%esp),%eax
    329f:	00 
    32a0:	66 c1 c0 08          	rol    $0x8,%ax
    32a4:	66 89 44 24 42       	mov    %ax,0x42(%esp)
    32a9:	83 c4 0c             	add    $0xc,%esp
    32ac:	6a 10                	push   $0x10
    32ae:	53                   	push   %ebx
    32af:	ff 74 24 14          	pushl  0x14(%esp)
    32b3:	e8 fc ff ff ff       	call   32b4 <submitr+0xfa>
    32b8:	83 c4 10             	add    $0x10,%esp
    32bb:	85 c0                	test   %eax,%eax
    32bd:	0f 88 46 01 00 00    	js     3409 <submitr+0x24f>
    32c3:	be ff ff ff ff       	mov    $0xffffffff,%esi
    32c8:	b8 00 00 00 00       	mov    $0x0,%eax
    32cd:	89 f1                	mov    %esi,%ecx
    32cf:	89 ef                	mov    %ebp,%edi
    32d1:	f2 ae                	repnz scas %es:(%edi),%al
    32d3:	89 cb                	mov    %ecx,%ebx
    32d5:	f7 d3                	not    %ebx
    32d7:	89 f1                	mov    %esi,%ecx
    32d9:	8b 7c 24 0c          	mov    0xc(%esp),%edi
    32dd:	f2 ae                	repnz scas %es:(%edi),%al
    32df:	89 4c 24 1c          	mov    %ecx,0x1c(%esp)
    32e3:	89 f1                	mov    %esi,%ecx
    32e5:	8b 7c 24 10          	mov    0x10(%esp),%edi
    32e9:	f2 ae                	repnz scas %es:(%edi),%al
    32eb:	89 ca                	mov    %ecx,%edx
    32ed:	f7 d2                	not    %edx
    32ef:	89 f1                	mov    %esi,%ecx
    32f1:	8b 7c 24 14          	mov    0x14(%esp),%edi
    32f5:	f2 ae                	repnz scas %es:(%edi),%al
    32f7:	2b 54 24 1c          	sub    0x1c(%esp),%edx
    32fb:	29 ca                	sub    %ecx,%edx
    32fd:	8d 44 5b fd          	lea    -0x3(%ebx,%ebx,2),%eax
    3301:	8d 44 02 7b          	lea    0x7b(%edx,%eax,1),%eax
    3305:	3d 00 20 00 00       	cmp    $0x2000,%eax
    330a:	0f 87 5e 01 00 00    	ja     346e <submitr+0x2b4>
    3310:	8d 94 24 4c 40 00 00 	lea    0x404c(%esp),%edx
    3317:	b9 00 08 00 00       	mov    $0x800,%ecx
    331c:	b8 00 00 00 00       	mov    $0x0,%eax
    3321:	89 d7                	mov    %edx,%edi
    3323:	f3 ab                	rep stos %eax,%es:(%edi)
    3325:	b9 ff ff ff ff       	mov    $0xffffffff,%ecx
    332a:	89 ef                	mov    %ebp,%edi
    332c:	f2 ae                	repnz scas %es:(%edi),%al
    332e:	f7 d1                	not    %ecx
    3330:	89 cf                	mov    %ecx,%edi
    3332:	83 ef 01             	sub    $0x1,%edi
    3335:	0f 84 df 04 00 00    	je     381a <submitr+0x660>
    333b:	89 eb                	mov    %ebp,%ebx
    333d:	89 d6                	mov    %edx,%esi
    333f:	e9 c4 01 00 00       	jmp    3508 <submitr+0x34e>
    3344:	8b 44 24 18          	mov    0x18(%esp),%eax
    3348:	c7 00 45 72 72 6f    	movl   $0x6f727245,(%eax)
    334e:	c7 40 04 72 3a 20 43 	movl   $0x43203a72,0x4(%eax)
    3355:	c7 40 08 6c 69 65 6e 	movl   $0x6e65696c,0x8(%eax)
    335c:	c7 40 0c 74 20 75 6e 	movl   $0x6e752074,0xc(%eax)
    3363:	c7 40 10 61 62 6c 65 	movl   $0x656c6261,0x10(%eax)
    336a:	c7 40 14 20 74 6f 20 	movl   $0x206f7420,0x14(%eax)
    3371:	c7 40 18 63 72 65 61 	movl   $0x61657263,0x18(%eax)
    3378:	c7 40 1c 74 65 20 73 	movl   $0x73206574,0x1c(%eax)
    337f:	c7 40 20 6f 63 6b 65 	movl   $0x656b636f,0x20(%eax)
    3386:	66 c7 40 24 74 00    	movw   $0x74,0x24(%eax)
    338c:	b8 ff ff ff ff       	mov    $0xffffffff,%eax
    3391:	e9 37 03 00 00       	jmp    36cd <submitr+0x513>
    3396:	8b 44 24 18          	mov    0x18(%esp),%eax
    339a:	c7 00 45 72 72 6f    	movl   $0x6f727245,(%eax)
    33a0:	c7 40 04 72 3a 20 44 	movl   $0x44203a72,0x4(%eax)
    33a7:	c7 40 08 4e 53 20 69 	movl   $0x6920534e,0x8(%eax)
    33ae:	c7 40 0c 73 20 75 6e 	movl   $0x6e752073,0xc(%eax)
    33b5:	c7 40 10 61 62 6c 65 	movl   $0x656c6261,0x10(%eax)
    33bc:	c7 40 14 20 74 6f 20 	movl   $0x206f7420,0x14(%eax)
    33c3:	c7 40 18 72 65 73 6f 	movl   $0x6f736572,0x18(%eax)
    33ca:	c7 40 1c 6c 76 65 20 	movl   $0x2065766c,0x1c(%eax)
    33d1:	c7 40 20 73 65 72 76 	movl   $0x76726573,0x20(%eax)
    33d8:	c7 40 24 65 72 20 61 	movl   $0x61207265,0x24(%eax)
    33df:	c7 40 28 64 64 72 65 	movl   $0x65726464,0x28(%eax)
    33e6:	66 c7 40 2c 73 73    	movw   $0x7373,0x2c(%eax)
    33ec:	c6 40 2e 00          	movb   $0x0,0x2e(%eax)
    33f0:	83 ec 0c             	sub    $0xc,%esp
    33f3:	ff 74 24 14          	pushl  0x14(%esp)
    33f7:	e8 fc ff ff ff       	call   33f8 <submitr+0x23e>
    33fc:	83 c4 10             	add    $0x10,%esp
    33ff:	b8 ff ff ff ff       	mov    $0xffffffff,%eax
    3404:	e9 c4 02 00 00       	jmp    36cd <submitr+0x513>
    3409:	8b 44 24 18          	mov    0x18(%esp),%eax
    340d:	c7 00 45 72 72 6f    	movl   $0x6f727245,(%eax)
    3413:	c7 40 04 72 3a 20 55 	movl   $0x55203a72,0x4(%eax)
    341a:	c7 40 08 6e 61 62 6c 	movl   $0x6c62616e,0x8(%eax)
    3421:	c7 40 0c 65 20 74 6f 	movl   $0x6f742065,0xc(%eax)
    3428:	c7 40 10 20 63 6f 6e 	movl   $0x6e6f6320,0x10(%eax)
    342f:	c7 40 14 6e 65 63 74 	movl   $0x7463656e,0x14(%eax)
    3436:	c7 40 18 20 74 6f 20 	movl   $0x206f7420,0x18(%eax)
    343d:	c7 40 1c 74 68 65 20 	movl   $0x20656874,0x1c(%eax)
    3444:	c7 40 20 73 65 72 76 	movl   $0x76726573,0x20(%eax)
    344b:	66 c7 40 24 65 72    	movw   $0x7265,0x24(%eax)
    3451:	c6 40 26 00          	movb   $0x0,0x26(%eax)
    3455:	83 ec 0c             	sub    $0xc,%esp
    3458:	ff 74 24 14          	pushl  0x14(%esp)
    345c:	e8 fc ff ff ff       	call   345d <submitr+0x2a3>
    3461:	83 c4 10             	add    $0x10,%esp
    3464:	b8 ff ff ff ff       	mov    $0xffffffff,%eax
    3469:	e9 5f 02 00 00       	jmp    36cd <submitr+0x513>
    346e:	8b 44 24 18          	mov    0x18(%esp),%eax
    3472:	c7 00 45 72 72 6f    	movl   $0x6f727245,(%eax)
    3478:	c7 40 04 72 3a 20 52 	movl   $0x52203a72,0x4(%eax)
    347f:	c7 40 08 65 73 75 6c 	movl   $0x6c757365,0x8(%eax)
    3486:	c7 40 0c 74 20 73 74 	movl   $0x74732074,0xc(%eax)
    348d:	c7 40 10 72 69 6e 67 	movl   $0x676e6972,0x10(%eax)
    3494:	c7 40 14 20 74 6f 6f 	movl   $0x6f6f7420,0x14(%eax)
    349b:	c7 40 18 20 6c 61 72 	movl   $0x72616c20,0x18(%eax)
    34a2:	c7 40 1c 67 65 2e 20 	movl   $0x202e6567,0x1c(%eax)
    34a9:	c7 40 20 49 6e 63 72 	movl   $0x72636e49,0x20(%eax)
    34b0:	c7 40 24 65 61 73 65 	movl   $0x65736165,0x24(%eax)
    34b7:	c7 40 28 20 53 55 42 	movl   $0x42555320,0x28(%eax)
    34be:	c7 40 2c 4d 49 54 52 	movl   $0x5254494d,0x2c(%eax)
    34c5:	c7 40 30 5f 4d 41 58 	movl   $0x58414d5f,0x30(%eax)
    34cc:	c7 40 34 42 55 46 00 	movl   $0x465542,0x34(%eax)
    34d3:	83 ec 0c             	sub    $0xc,%esp
    34d6:	ff 74 24 14          	pushl  0x14(%esp)
    34da:	e8 fc ff ff ff       	call   34db <submitr+0x321>
    34df:	83 c4 10             	add    $0x10,%esp
    34e2:	b8 ff ff ff ff       	mov    $0xffffffff,%eax
    34e7:	e9 e1 01 00 00       	jmp    36cd <submitr+0x513>
    34ec:	3c 5f                	cmp    $0x5f,%al
    34ee:	0f 85 82 00 00 00    	jne    3576 <submitr+0x3bc>
    34f4:	88 06                	mov    %al,(%esi)
    34f6:	8d 76 01             	lea    0x1(%esi),%esi
    34f9:	83 c3 01             	add    $0x1,%ebx
    34fc:	8d 44 3d 00          	lea    0x0(%ebp,%edi,1),%eax
    3500:	39 c3                	cmp    %eax,%ebx
    3502:	0f 84 12 03 00 00    	je     381a <submitr+0x660>
    3508:	0f b6 03             	movzbl (%ebx),%eax
    350b:	8d 50 d6             	lea    -0x2a(%eax),%edx
    350e:	80 fa 0f             	cmp    $0xf,%dl
    3511:	77 d9                	ja     34ec <submitr+0x332>
    3513:	b9 d9 ff 00 00       	mov    $0xffd9,%ecx
    3518:	0f a3 d1             	bt     %edx,%ecx
    351b:	72 d7                	jb     34f4 <submitr+0x33a>
    351d:	3c 5f                	cmp    $0x5f,%al
    351f:	74 d3                	je     34f4 <submitr+0x33a>
    3521:	8d 50 e0             	lea    -0x20(%eax),%edx
    3524:	80 fa 5f             	cmp    $0x5f,%dl
    3527:	76 08                	jbe    3531 <submitr+0x377>
    3529:	3c 09                	cmp    $0x9,%al
    352b:	0f 85 a2 02 00 00    	jne    37d3 <submitr+0x619>
    3531:	83 ec 0c             	sub    $0xc,%esp
    3534:	0f b6 c0             	movzbl %al,%eax
    3537:	50                   	push   %eax
    3538:	68 1a 48 00 00       	push   $0x481a
    353d:	6a 08                	push   $0x8
    353f:	6a 01                	push   $0x1
    3541:	8d 84 24 68 80 00 00 	lea    0x8068(%esp),%eax
    3548:	50                   	push   %eax
    3549:	e8 fc ff ff ff       	call   354a <submitr+0x390>
    354e:	0f b6 84 24 6c 80 00 	movzbl 0x806c(%esp),%eax
    3555:	00 
    3556:	88 06                	mov    %al,(%esi)
    3558:	0f b6 84 24 6d 80 00 	movzbl 0x806d(%esp),%eax
    355f:	00 
    3560:	88 46 01             	mov    %al,0x1(%esi)
    3563:	0f b6 84 24 6e 80 00 	movzbl 0x806e(%esp),%eax
    356a:	00 
    356b:	88 46 02             	mov    %al,0x2(%esi)
    356e:	83 c4 20             	add    $0x20,%esp
    3571:	8d 76 03             	lea    0x3(%esi),%esi
    3574:	eb 83                	jmp    34f9 <submitr+0x33f>
    3576:	89 c2                	mov    %eax,%edx
    3578:	83 e2 df             	and    $0xffffffdf,%edx
    357b:	83 ea 41             	sub    $0x41,%edx
    357e:	80 fa 19             	cmp    $0x19,%dl
    3581:	0f 86 6d ff ff ff    	jbe    34f4 <submitr+0x33a>
    3587:	3c 20                	cmp    $0x20,%al
    3589:	75 96                	jne    3521 <submitr+0x367>
    358b:	c6 06 2b             	movb   $0x2b,(%esi)
    358e:	8d 76 01             	lea    0x1(%esi),%esi
    3591:	e9 63 ff ff ff       	jmp    34f9 <submitr+0x33f>
    3596:	01 c6                	add    %eax,%esi
    3598:	29 c3                	sub    %eax,%ebx
    359a:	0f 84 d3 02 00 00    	je     3873 <submitr+0x6b9>
    35a0:	83 ec 04             	sub    $0x4,%esp
    35a3:	53                   	push   %ebx
    35a4:	56                   	push   %esi
    35a5:	57                   	push   %edi
    35a6:	e8 fc ff ff ff       	call   35a7 <submitr+0x3ed>
    35ab:	83 c4 10             	add    $0x10,%esp
    35ae:	85 c0                	test   %eax,%eax
    35b0:	7f e4                	jg     3596 <submitr+0x3dc>
    35b2:	e8 fc ff ff ff       	call   35b3 <submitr+0x3f9>
    35b7:	83 38 04             	cmpl   $0x4,(%eax)
    35ba:	0f 85 aa 01 00 00    	jne    376a <submitr+0x5b0>
    35c0:	89 e8                	mov    %ebp,%eax
    35c2:	eb d2                	jmp    3596 <submitr+0x3dc>
    35c4:	8b 44 24 18          	mov    0x18(%esp),%eax
    35c8:	c7 00 45 72 72 6f    	movl   $0x6f727245,(%eax)
    35ce:	c7 40 04 72 3a 20 43 	movl   $0x43203a72,0x4(%eax)
    35d5:	c7 40 08 6c 69 65 6e 	movl   $0x6e65696c,0x8(%eax)
    35dc:	c7 40 0c 74 20 75 6e 	movl   $0x6e752074,0xc(%eax)
    35e3:	c7 40 10 61 62 6c 65 	movl   $0x656c6261,0x10(%eax)
    35ea:	c7 40 14 20 74 6f 20 	movl   $0x206f7420,0x14(%eax)
    35f1:	c7 40 18 72 65 61 64 	movl   $0x64616572,0x18(%eax)
    35f8:	c7 40 1c 20 66 69 72 	movl   $0x72696620,0x1c(%eax)
    35ff:	c7 40 20 73 74 20 68 	movl   $0x68207473,0x20(%eax)
    3606:	c7 40 24 65 61 64 65 	movl   $0x65646165,0x24(%eax)
    360d:	c7 40 28 72 20 66 72 	movl   $0x72662072,0x28(%eax)
    3614:	c7 40 2c 6f 6d 20 73 	movl   $0x73206d6f,0x2c(%eax)
    361b:	c7 40 30 65 72 76 65 	movl   $0x65767265,0x30(%eax)
    3622:	66 c7 40 34 72 00    	movw   $0x72,0x34(%eax)
    3628:	83 ec 0c             	sub    $0xc,%esp
    362b:	ff 74 24 14          	pushl  0x14(%esp)
    362f:	e8 fc ff ff ff       	call   3630 <submitr+0x476>
    3634:	83 c4 10             	add    $0x10,%esp
    3637:	b8 ff ff ff ff       	mov    $0xffffffff,%eax
    363c:	e9 8c 00 00 00       	jmp    36cd <submitr+0x513>
    3641:	83 ec 08             	sub    $0x8,%esp
    3644:	8d 94 24 54 80 00 00 	lea    0x8054(%esp),%edx
    364b:	52                   	push   %edx
    364c:	50                   	push   %eax
    364d:	68 34 47 00 00       	push   $0x4734
    3652:	6a ff                	push   $0xffffffff
    3654:	6a 01                	push   $0x1
    3656:	ff 74 24 34          	pushl  0x34(%esp)
    365a:	e8 fc ff ff ff       	call   365b <submitr+0x4a1>
    365f:	83 c4 14             	add    $0x14,%esp
    3662:	ff 74 24 14          	pushl  0x14(%esp)
    3666:	e8 fc ff ff ff       	call   3667 <submitr+0x4ad>
    366b:	83 c4 10             	add    $0x10,%esp
    366e:	b8 ff ff ff ff       	mov    $0xffffffff,%eax
    3673:	eb 58                	jmp    36cd <submitr+0x513>
    3675:	b9 00 20 00 00       	mov    $0x2000,%ecx
    367a:	8d 94 24 4c 20 00 00 	lea    0x204c(%esp),%edx
    3681:	8d 44 24 40          	lea    0x40(%esp),%eax
    3685:	e8 85 fa ff ff       	call   310f <rio_readlineb>
    368a:	85 c0                	test   %eax,%eax
    368c:	7e 5e                	jle    36ec <submitr+0x532>
    368e:	83 ec 08             	sub    $0x8,%esp
    3691:	8d 84 24 54 20 00 00 	lea    0x2054(%esp),%eax
    3698:	50                   	push   %eax
    3699:	8b 74 24 24          	mov    0x24(%esp),%esi
    369d:	56                   	push   %esi
    369e:	e8 fc ff ff ff       	call   369f <submitr+0x4e5>
    36a3:	83 c4 04             	add    $0x4,%esp
    36a6:	ff 74 24 14          	pushl  0x14(%esp)
    36aa:	e8 fc ff ff ff       	call   36ab <submitr+0x4f1>
    36af:	bf 35 48 00 00       	mov    $0x4835,%edi
    36b4:	b9 03 00 00 00       	mov    $0x3,%ecx
    36b9:	f3 a6                	repz cmpsb %es:(%edi),%ds:(%esi)
    36bb:	0f 97 c0             	seta   %al
    36be:	1c 00                	sbb    $0x0,%al
    36c0:	83 c4 10             	add    $0x10,%esp
    36c3:	84 c0                	test   %al,%al
    36c5:	0f 95 c0             	setne  %al
    36c8:	0f b6 c0             	movzbl %al,%eax
    36cb:	f7 d8                	neg    %eax
    36cd:	8b bc 24 4c a0 00 00 	mov    0xa04c(%esp),%edi
    36d4:	65 33 3d 14 00 00 00 	xor    %gs:0x14,%edi
    36db:	0f 85 ad 02 00 00    	jne    398e <submitr+0x7d4>
    36e1:	81 c4 5c a0 00 00    	add    $0xa05c,%esp
    36e7:	5b                   	pop    %ebx
    36e8:	5e                   	pop    %esi
    36e9:	5f                   	pop    %edi
    36ea:	5d                   	pop    %ebp
    36eb:	c3                   	ret    
    36ec:	8b 44 24 18          	mov    0x18(%esp),%eax
    36f0:	c7 00 45 72 72 6f    	movl   $0x6f727245,(%eax)
    36f6:	c7 40 04 72 3a 20 43 	movl   $0x43203a72,0x4(%eax)
    36fd:	c7 40 08 6c 69 65 6e 	movl   $0x6e65696c,0x8(%eax)
    3704:	c7 40 0c 74 20 75 6e 	movl   $0x6e752074,0xc(%eax)
    370b:	c7 40 10 61 62 6c 65 	movl   $0x656c6261,0x10(%eax)
    3712:	c7 40 14 20 74 6f 20 	movl   $0x206f7420,0x14(%eax)
    3719:	c7 40 18 72 65 61 64 	movl   $0x64616572,0x18(%eax)
    3720:	c7 40 1c 20 73 74 61 	movl   $0x61747320,0x1c(%eax)
    3727:	c7 40 20 74 75 73 20 	movl   $0x20737574,0x20(%eax)
    372e:	c7 40 24 6d 65 73 73 	movl   $0x7373656d,0x24(%eax)
    3735:	c7 40 28 61 67 65 20 	movl   $0x20656761,0x28(%eax)
    373c:	c7 40 2c 66 72 6f 6d 	movl   $0x6d6f7266,0x2c(%eax)
    3743:	c7 40 30 20 73 65 72 	movl   $0x72657320,0x30(%eax)
    374a:	c7 40 34 76 65 72 00 	movl   $0x726576,0x34(%eax)
    3751:	83 ec 0c             	sub    $0xc,%esp
    3754:	ff 74 24 14          	pushl  0x14(%esp)
    3758:	e8 fc ff ff ff       	call   3759 <submitr+0x59f>
    375d:	83 c4 10             	add    $0x10,%esp
    3760:	b8 ff ff ff ff       	mov    $0xffffffff,%eax
    3765:	e9 63 ff ff ff       	jmp    36cd <submitr+0x513>
    376a:	8b 44 24 18          	mov    0x18(%esp),%eax
    376e:	c7 00 45 72 72 6f    	movl   $0x6f727245,(%eax)
    3774:	c7 40 04 72 3a 20 43 	movl   $0x43203a72,0x4(%eax)
    377b:	c7 40 08 6c 69 65 6e 	movl   $0x6e65696c,0x8(%eax)
    3782:	c7 40 0c 74 20 75 6e 	movl   $0x6e752074,0xc(%eax)
    3789:	c7 40 10 61 62 6c 65 	movl   $0x656c6261,0x10(%eax)
    3790:	c7 40 14 20 74 6f 20 	movl   $0x206f7420,0x14(%eax)
    3797:	c7 40 18 77 72 69 74 	movl   $0x74697277,0x18(%eax)
    379e:	c7 40 1c 65 20 74 6f 	movl   $0x6f742065,0x1c(%eax)
    37a5:	c7 40 20 20 74 68 65 	movl   $0x65687420,0x20(%eax)
    37ac:	c7 40 24 20 73 65 72 	movl   $0x72657320,0x24(%eax)
    37b3:	c7 40 28 76 65 72 00 	movl   $0x726576,0x28(%eax)
    37ba:	83 ec 0c             	sub    $0xc,%esp
    37bd:	ff 74 24 14          	pushl  0x14(%esp)
    37c1:	e8 fc ff ff ff       	call   37c2 <submitr+0x608>
    37c6:	83 c4 10             	add    $0x10,%esp
    37c9:	b8 ff ff ff ff       	mov    $0xffffffff,%eax
    37ce:	e9 fa fe ff ff       	jmp    36cd <submitr+0x513>
    37d3:	a1 64 47 00 00       	mov    0x4764,%eax
    37d8:	8b 7c 24 18          	mov    0x18(%esp),%edi
    37dc:	89 07                	mov    %eax,(%edi)
    37de:	a1 a3 47 00 00       	mov    0x47a3,%eax
    37e3:	89 47 3f             	mov    %eax,0x3f(%edi)
    37e6:	89 f8                	mov    %edi,%eax
    37e8:	8d 7f 04             	lea    0x4(%edi),%edi
    37eb:	83 e7 fc             	and    $0xfffffffc,%edi
    37ee:	29 f8                	sub    %edi,%eax
    37f0:	be 64 47 00 00       	mov    $0x4764,%esi
    37f5:	29 c6                	sub    %eax,%esi
    37f7:	83 c0 43             	add    $0x43,%eax
    37fa:	c1 e8 02             	shr    $0x2,%eax
    37fd:	89 c1                	mov    %eax,%ecx
    37ff:	f3 a5                	rep movsl %ds:(%esi),%es:(%edi)
    3801:	83 ec 0c             	sub    $0xc,%esp
    3804:	ff 74 24 14          	pushl  0x14(%esp)
    3808:	e8 fc ff ff ff       	call   3809 <submitr+0x64f>
    380d:	83 c4 10             	add    $0x10,%esp
    3810:	b8 ff ff ff ff       	mov    $0xffffffff,%eax
    3815:	e9 b3 fe ff ff       	jmp    36cd <submitr+0x513>
    381a:	8d 84 24 4c 40 00 00 	lea    0x404c(%esp),%eax
    3821:	50                   	push   %eax
    3822:	ff 74 24 18          	pushl  0x18(%esp)
    3826:	ff 74 24 18          	pushl  0x18(%esp)
    382a:	ff 74 24 18          	pushl  0x18(%esp)
    382e:	68 a8 47 00 00       	push   $0x47a8
    3833:	68 00 20 00 00       	push   $0x2000
    3838:	6a 01                	push   $0x1
    383a:	8d bc 24 68 20 00 00 	lea    0x2068(%esp),%edi
    3841:	57                   	push   %edi
    3842:	e8 fc ff ff ff       	call   3843 <submitr+0x689>
    3847:	b9 ff ff ff ff       	mov    $0xffffffff,%ecx
    384c:	b8 00 00 00 00       	mov    $0x0,%eax
    3851:	f2 ae                	repnz scas %es:(%edi),%al
    3853:	f7 d1                	not    %ecx
    3855:	83 c4 20             	add    $0x20,%esp
    3858:	8d b4 24 4c 20 00 00 	lea    0x204c(%esp),%esi
    385f:	bd 00 00 00 00       	mov    $0x0,%ebp
    3864:	89 cb                	mov    %ecx,%ebx
    3866:	83 eb 01             	sub    $0x1,%ebx
    3869:	8b 7c 24 08          	mov    0x8(%esp),%edi
    386d:	0f 85 2d fd ff ff    	jne    35a0 <submitr+0x3e6>
    3873:	8b 44 24 08          	mov    0x8(%esp),%eax
    3877:	89 44 24 40          	mov    %eax,0x40(%esp)
    387b:	c7 44 24 44 00 00 00 	movl   $0x0,0x44(%esp)
    3882:	00 
    3883:	8d 44 24 4c          	lea    0x4c(%esp),%eax
    3887:	89 44 24 48          	mov    %eax,0x48(%esp)
    388b:	b9 00 20 00 00       	mov    $0x2000,%ecx
    3890:	8d 94 24 4c 20 00 00 	lea    0x204c(%esp),%edx
    3897:	8d 44 24 40          	lea    0x40(%esp),%eax
    389b:	e8 6f f8 ff ff       	call   310f <rio_readlineb>
    38a0:	85 c0                	test   %eax,%eax
    38a2:	0f 8e 1c fd ff ff    	jle    35c4 <submitr+0x40a>
    38a8:	83 ec 0c             	sub    $0xc,%esp
    38ab:	8d 84 24 58 80 00 00 	lea    0x8058(%esp),%eax
    38b2:	50                   	push   %eax
    38b3:	8d 44 24 3c          	lea    0x3c(%esp),%eax
    38b7:	50                   	push   %eax
    38b8:	8d 84 24 60 60 00 00 	lea    0x6060(%esp),%eax
    38bf:	50                   	push   %eax
    38c0:	68 21 48 00 00       	push   $0x4821
    38c5:	8d 84 24 68 20 00 00 	lea    0x2068(%esp),%eax
    38cc:	50                   	push   %eax
    38cd:	e8 fc ff ff ff       	call   38ce <submitr+0x714>
    38d2:	8b 44 24 4c          	mov    0x4c(%esp),%eax
    38d6:	83 c4 20             	add    $0x20,%esp
    38d9:	3d c8 00 00 00       	cmp    $0xc8,%eax
    38de:	0f 85 5d fd ff ff    	jne    3641 <submitr+0x487>
    38e4:	8d 9c 24 4c 20 00 00 	lea    0x204c(%esp),%ebx
    38eb:	bf 32 48 00 00       	mov    $0x4832,%edi
    38f0:	b9 03 00 00 00       	mov    $0x3,%ecx
    38f5:	89 de                	mov    %ebx,%esi
    38f7:	f3 a6                	repz cmpsb %es:(%edi),%ds:(%esi)
    38f9:	0f 97 c0             	seta   %al
    38fc:	1c 00                	sbb    $0x0,%al
    38fe:	84 c0                	test   %al,%al
    3900:	0f 84 6f fd ff ff    	je     3675 <submitr+0x4bb>
    3906:	b9 00 20 00 00       	mov    $0x2000,%ecx
    390b:	89 da                	mov    %ebx,%edx
    390d:	8d 44 24 40          	lea    0x40(%esp),%eax
    3911:	e8 f9 f7 ff ff       	call   310f <rio_readlineb>
    3916:	85 c0                	test   %eax,%eax
    3918:	7f d1                	jg     38eb <submitr+0x731>
    391a:	8b 44 24 18          	mov    0x18(%esp),%eax
    391e:	c7 00 45 72 72 6f    	movl   $0x6f727245,(%eax)
    3924:	c7 40 04 72 3a 20 43 	movl   $0x43203a72,0x4(%eax)
    392b:	c7 40 08 6c 69 65 6e 	movl   $0x6e65696c,0x8(%eax)
    3932:	c7 40 0c 74 20 75 6e 	movl   $0x6e752074,0xc(%eax)
    3939:	c7 40 10 61 62 6c 65 	movl   $0x656c6261,0x10(%eax)
    3940:	c7 40 14 20 74 6f 20 	movl   $0x206f7420,0x14(%eax)
    3947:	c7 40 18 72 65 61 64 	movl   $0x64616572,0x18(%eax)
    394e:	c7 40 1c 20 68 65 61 	movl   $0x61656820,0x1c(%eax)
    3955:	c7 40 20 64 65 72 73 	movl   $0x73726564,0x20(%eax)
    395c:	c7 40 24 20 66 72 6f 	movl   $0x6f726620,0x24(%eax)
    3963:	c7 40 28 6d 20 73 65 	movl   $0x6573206d,0x28(%eax)
    396a:	c7 40 2c 72 76 65 72 	movl   $0x72657672,0x2c(%eax)
    3971:	c6 40 30 00          	movb   $0x0,0x30(%eax)
    3975:	83 ec 0c             	sub    $0xc,%esp
    3978:	ff 74 24 14          	pushl  0x14(%esp)
    397c:	e8 fc ff ff ff       	call   397d <submitr+0x7c3>
    3981:	83 c4 10             	add    $0x10,%esp
    3984:	b8 ff ff ff ff       	mov    $0xffffffff,%eax
    3989:	e9 3f fd ff ff       	jmp    36cd <submitr+0x513>
    398e:	e8 fc ff ff ff       	call   398f <submitr+0x7d5>

00003993 <init_timeout>:
    3993:	f3 0f 1e fb          	endbr32 
    3997:	53                   	push   %ebx
    3998:	83 ec 08             	sub    $0x8,%esp
    399b:	8b 5c 24 10          	mov    0x10(%esp),%ebx
    399f:	85 db                	test   %ebx,%ebx
    39a1:	75 05                	jne    39a8 <init_timeout+0x15>
    39a3:	83 c4 08             	add    $0x8,%esp
    39a6:	5b                   	pop    %ebx
    39a7:	c3                   	ret    
    39a8:	83 ec 08             	sub    $0x8,%esp
    39ab:	68 e6 30 00 00       	push   $0x30e6
    39b0:	6a 0e                	push   $0xe
    39b2:	e8 fc ff ff ff       	call   39b3 <init_timeout+0x20>
    39b7:	85 db                	test   %ebx,%ebx
    39b9:	b8 00 00 00 00       	mov    $0x0,%eax
    39be:	0f 48 d8             	cmovs  %eax,%ebx
    39c1:	89 1c 24             	mov    %ebx,(%esp)
    39c4:	e8 fc ff ff ff       	call   39c5 <init_timeout+0x32>
    39c9:	83 c4 10             	add    $0x10,%esp
    39cc:	eb d5                	jmp    39a3 <init_timeout+0x10>

000039ce <init_driver>:
    39ce:	f3 0f 1e fb          	endbr32 
    39d2:	57                   	push   %edi
    39d3:	56                   	push   %esi
    39d4:	53                   	push   %ebx
    39d5:	83 ec 28             	sub    $0x28,%esp
    39d8:	8b 74 24 38          	mov    0x38(%esp),%esi
    39dc:	65 a1 14 00 00 00    	mov    %gs:0x14,%eax
    39e2:	89 44 24 24          	mov    %eax,0x24(%esp)
    39e6:	31 c0                	xor    %eax,%eax
    39e8:	6a 01                	push   $0x1
    39ea:	6a 0d                	push   $0xd
    39ec:	e8 fc ff ff ff       	call   39ed <init_driver+0x1f>
    39f1:	83 c4 08             	add    $0x8,%esp
    39f4:	6a 01                	push   $0x1
    39f6:	6a 1d                	push   $0x1d
    39f8:	e8 fc ff ff ff       	call   39f9 <init_driver+0x2b>
    39fd:	83 c4 08             	add    $0x8,%esp
    3a00:	6a 01                	push   $0x1
    3a02:	6a 1d                	push   $0x1d
    3a04:	e8 fc ff ff ff       	call   3a05 <init_driver+0x37>
    3a09:	83 c4 0c             	add    $0xc,%esp
    3a0c:	6a 00                	push   $0x0
    3a0e:	6a 01                	push   $0x1
    3a10:	6a 02                	push   $0x2
    3a12:	e8 fc ff ff ff       	call   3a13 <init_driver+0x45>
    3a17:	83 c4 10             	add    $0x10,%esp
    3a1a:	85 c0                	test   %eax,%eax
    3a1c:	0f 88 a9 00 00 00    	js     3acb <init_driver+0xfd>
    3a22:	89 c3                	mov    %eax,%ebx
    3a24:	83 ec 0c             	sub    $0xc,%esp
    3a27:	68 38 48 00 00       	push   $0x4838
    3a2c:	e8 fc ff ff ff       	call   3a2d <init_driver+0x5f>
    3a31:	83 c4 10             	add    $0x10,%esp
    3a34:	85 c0                	test   %eax,%eax
    3a36:	0f 84 da 00 00 00    	je     3b16 <init_driver+0x148>
    3a3c:	8d 7c 24 0c          	lea    0xc(%esp),%edi
    3a40:	c7 44 24 0c 00 00 00 	movl   $0x0,0xc(%esp)
    3a47:	00 
    3a48:	c7 44 24 10 00 00 00 	movl   $0x0,0x10(%esp)
    3a4f:	00 
    3a50:	c7 44 24 14 00 00 00 	movl   $0x0,0x14(%esp)
    3a57:	00 
    3a58:	c7 44 24 18 00 00 00 	movl   $0x0,0x18(%esp)
    3a5f:	00 
    3a60:	66 c7 44 24 0c 02 00 	movw   $0x2,0xc(%esp)
    3a67:	6a 0c                	push   $0xc
    3a69:	ff 70 0c             	pushl  0xc(%eax)
    3a6c:	8b 40 10             	mov    0x10(%eax),%eax
    3a6f:	ff 30                	pushl  (%eax)
    3a71:	8d 44 24 1c          	lea    0x1c(%esp),%eax
    3a75:	50                   	push   %eax
    3a76:	e8 fc ff ff ff       	call   3a77 <init_driver+0xa9>
    3a7b:	66 c7 44 24 1e 3b 6c 	movw   $0x6c3b,0x1e(%esp)
    3a82:	83 c4 0c             	add    $0xc,%esp
    3a85:	6a 10                	push   $0x10
    3a87:	57                   	push   %edi
    3a88:	53                   	push   %ebx
    3a89:	e8 fc ff ff ff       	call   3a8a <init_driver+0xbc>
    3a8e:	83 c4 10             	add    $0x10,%esp
    3a91:	85 c0                	test   %eax,%eax
    3a93:	0f 88 e9 00 00 00    	js     3b82 <init_driver+0x1b4>
    3a99:	83 ec 0c             	sub    $0xc,%esp
    3a9c:	53                   	push   %ebx
    3a9d:	e8 fc ff ff ff       	call   3a9e <init_driver+0xd0>
    3aa2:	66 c7 06 4f 4b       	movw   $0x4b4f,(%esi)
    3aa7:	c6 46 02 00          	movb   $0x0,0x2(%esi)
    3aab:	83 c4 10             	add    $0x10,%esp
    3aae:	b8 00 00 00 00       	mov    $0x0,%eax
    3ab3:	8b 54 24 1c          	mov    0x1c(%esp),%edx
    3ab7:	65 33 15 14 00 00 00 	xor    %gs:0x14,%edx
    3abe:	0f 85 eb 00 00 00    	jne    3baf <init_driver+0x1e1>
    3ac4:	83 c4 20             	add    $0x20,%esp
    3ac7:	5b                   	pop    %ebx
    3ac8:	5e                   	pop    %esi
    3ac9:	5f                   	pop    %edi
    3aca:	c3                   	ret    
    3acb:	c7 06 45 72 72 6f    	movl   $0x6f727245,(%esi)
    3ad1:	c7 46 04 72 3a 20 43 	movl   $0x43203a72,0x4(%esi)
    3ad8:	c7 46 08 6c 69 65 6e 	movl   $0x6e65696c,0x8(%esi)
    3adf:	c7 46 0c 74 20 75 6e 	movl   $0x6e752074,0xc(%esi)
    3ae6:	c7 46 10 61 62 6c 65 	movl   $0x656c6261,0x10(%esi)
    3aed:	c7 46 14 20 74 6f 20 	movl   $0x206f7420,0x14(%esi)
    3af4:	c7 46 18 63 72 65 61 	movl   $0x61657263,0x18(%esi)
    3afb:	c7 46 1c 74 65 20 73 	movl   $0x73206574,0x1c(%esi)
    3b02:	c7 46 20 6f 63 6b 65 	movl   $0x656b636f,0x20(%esi)
    3b09:	66 c7 46 24 74 00    	movw   $0x74,0x24(%esi)
    3b0f:	b8 ff ff ff ff       	mov    $0xffffffff,%eax
    3b14:	eb 9d                	jmp    3ab3 <init_driver+0xe5>
    3b16:	c7 06 45 72 72 6f    	movl   $0x6f727245,(%esi)
    3b1c:	c7 46 04 72 3a 20 44 	movl   $0x44203a72,0x4(%esi)
    3b23:	c7 46 08 4e 53 20 69 	movl   $0x6920534e,0x8(%esi)
    3b2a:	c7 46 0c 73 20 75 6e 	movl   $0x6e752073,0xc(%esi)
    3b31:	c7 46 10 61 62 6c 65 	movl   $0x656c6261,0x10(%esi)
    3b38:	c7 46 14 20 74 6f 20 	movl   $0x206f7420,0x14(%esi)
    3b3f:	c7 46 18 72 65 73 6f 	movl   $0x6f736572,0x18(%esi)
    3b46:	c7 46 1c 6c 76 65 20 	movl   $0x2065766c,0x1c(%esi)
    3b4d:	c7 46 20 73 65 72 76 	movl   $0x76726573,0x20(%esi)
    3b54:	c7 46 24 65 72 20 61 	movl   $0x61207265,0x24(%esi)
    3b5b:	c7 46 28 64 64 72 65 	movl   $0x65726464,0x28(%esi)
    3b62:	66 c7 46 2c 73 73    	movw   $0x7373,0x2c(%esi)
    3b68:	c6 46 2e 00          	movb   $0x0,0x2e(%esi)
    3b6c:	83 ec 0c             	sub    $0xc,%esp
    3b6f:	53                   	push   %ebx
    3b70:	e8 fc ff ff ff       	call   3b71 <init_driver+0x1a3>
    3b75:	83 c4 10             	add    $0x10,%esp
    3b78:	b8 ff ff ff ff       	mov    $0xffffffff,%eax
    3b7d:	e9 31 ff ff ff       	jmp    3ab3 <init_driver+0xe5>
    3b82:	83 ec 0c             	sub    $0xc,%esp
    3b85:	68 38 48 00 00       	push   $0x4838
    3b8a:	68 f4 47 00 00       	push   $0x47f4
    3b8f:	6a ff                	push   $0xffffffff
    3b91:	6a 01                	push   $0x1
    3b93:	56                   	push   %esi
    3b94:	e8 fc ff ff ff       	call   3b95 <init_driver+0x1c7>
    3b99:	83 c4 14             	add    $0x14,%esp
    3b9c:	53                   	push   %ebx
    3b9d:	e8 fc ff ff ff       	call   3b9e <init_driver+0x1d0>
    3ba2:	83 c4 10             	add    $0x10,%esp
    3ba5:	b8 ff ff ff ff       	mov    $0xffffffff,%eax
    3baa:	e9 04 ff ff ff       	jmp    3ab3 <init_driver+0xe5>
    3baf:	e8 fc ff ff ff       	call   3bb0 <init_driver+0x1e2>

00003bb4 <driver_post>:
    3bb4:	f3 0f 1e fb          	endbr32 
    3bb8:	53                   	push   %ebx
    3bb9:	83 ec 08             	sub    $0x8,%esp
    3bbc:	8b 54 24 10          	mov    0x10(%esp),%edx
    3bc0:	8b 44 24 18          	mov    0x18(%esp),%eax
    3bc4:	8b 5c 24 1c          	mov    0x1c(%esp),%ebx
    3bc8:	85 c0                	test   %eax,%eax
    3bca:	75 17                	jne    3be3 <driver_post+0x2f>
    3bcc:	85 d2                	test   %edx,%edx
    3bce:	74 05                	je     3bd5 <driver_post+0x21>
    3bd0:	80 3a 00             	cmpb   $0x0,(%edx)
    3bd3:	75 34                	jne    3c09 <driver_post+0x55>
    3bd5:	66 c7 03 4f 4b       	movw   $0x4b4f,(%ebx)
    3bda:	c6 43 02 00          	movb   $0x0,0x2(%ebx)
    3bde:	83 c4 08             	add    $0x8,%esp
    3be1:	5b                   	pop    %ebx
    3be2:	c3                   	ret    
    3be3:	83 ec 04             	sub    $0x4,%esp
    3be6:	ff 74 24 18          	pushl  0x18(%esp)
    3bea:	68 4d 48 00 00       	push   $0x484d
    3bef:	6a 01                	push   $0x1
    3bf1:	e8 fc ff ff ff       	call   3bf2 <driver_post+0x3e>
    3bf6:	66 c7 03 4f 4b       	movw   $0x4b4f,(%ebx)
    3bfb:	c6 43 02 00          	movb   $0x0,0x2(%ebx)
    3bff:	83 c4 10             	add    $0x10,%esp
    3c02:	b8 00 00 00 00       	mov    $0x0,%eax
    3c07:	eb d5                	jmp    3bde <driver_post+0x2a>
    3c09:	83 ec 04             	sub    $0x4,%esp
    3c0c:	53                   	push   %ebx
    3c0d:	ff 74 24 1c          	pushl  0x1c(%esp)
    3c11:	68 64 48 00 00       	push   $0x4864
    3c16:	52                   	push   %edx
    3c17:	68 73 48 00 00       	push   $0x4873
    3c1c:	68 6c 3b 00 00       	push   $0x3b6c
    3c21:	68 38 48 00 00       	push   $0x4838
    3c26:	e8 8f f5 ff ff       	call   31ba <submitr>
    3c2b:	83 c4 20             	add    $0x20,%esp
    3c2e:	eb ae                	jmp    3bde <driver_post+0x2a>

00003c30 <__libc_csu_init>:
    3c30:	f3 0f 1e fb          	endbr32 
    3c34:	55                   	push   %ebp
    3c35:	e8 6b 00 00 00       	call   3ca5 <__x86.get_pc_thunk.bp>
    3c3a:	81 c5 32 33 00 00    	add    $0x3332,%ebp
    3c40:	57                   	push   %edi
    3c41:	56                   	push   %esi
    3c42:	53                   	push   %ebx
    3c43:	83 ec 0c             	sub    $0xc,%esp
    3c46:	89 eb                	mov    %ebp,%ebx
    3c48:	8b 7c 24 28          	mov    0x28(%esp),%edi
    3c4c:	e8 af e3 ff ff       	call   2000 <_init>
    3c51:	8d 9d fc fe ff ff    	lea    -0x104(%ebp),%ebx
    3c57:	8d 85 f8 fe ff ff    	lea    -0x108(%ebp),%eax
    3c5d:	29 c3                	sub    %eax,%ebx
    3c5f:	c1 fb 02             	sar    $0x2,%ebx
    3c62:	74 29                	je     3c8d <__libc_csu_init+0x5d>
    3c64:	31 f6                	xor    %esi,%esi
    3c66:	8d b4 26 00 00 00 00 	lea    0x0(%esi,%eiz,1),%esi
    3c6d:	8d 76 00             	lea    0x0(%esi),%esi
    3c70:	83 ec 04             	sub    $0x4,%esp
    3c73:	57                   	push   %edi
    3c74:	ff 74 24 2c          	pushl  0x2c(%esp)
    3c78:	ff 74 24 2c          	pushl  0x2c(%esp)
    3c7c:	ff 94 b5 f8 fe ff ff 	call   *-0x108(%ebp,%esi,4)
    3c83:	83 c6 01             	add    $0x1,%esi
    3c86:	83 c4 10             	add    $0x10,%esp
    3c89:	39 f3                	cmp    %esi,%ebx
    3c8b:	75 e3                	jne    3c70 <__libc_csu_init+0x40>
    3c8d:	83 c4 0c             	add    $0xc,%esp
    3c90:	5b                   	pop    %ebx
    3c91:	5e                   	pop    %esi
    3c92:	5f                   	pop    %edi
    3c93:	5d                   	pop    %ebp
    3c94:	c3                   	ret    
    3c95:	8d b4 26 00 00 00 00 	lea    0x0(%esi,%eiz,1),%esi
    3c9c:	8d 74 26 00          	lea    0x0(%esi,%eiz,1),%esi

00003ca0 <__libc_csu_fini>:
    3ca0:	f3 0f 1e fb          	endbr32 
    3ca4:	c3                   	ret    

00003ca5 <__x86.get_pc_thunk.bp>:
    3ca5:	8b 2c 24             	mov    (%esp),%ebp
    3ca8:	c3                   	ret    

Disassembly of section .fini:

00003cac <_fini>:
    3cac:	f3 0f 1e fb          	endbr32 
    3cb0:	53                   	push   %ebx
    3cb1:	83 ec 08             	sub    $0x8,%esp
    3cb4:	e8 77 e7 ff ff       	call   2430 <__x86.get_pc_thunk.bx>
    3cb9:	81 c3 b3 32 00 00    	add    $0x32b3,%ebx
    3cbf:	83 c4 08             	add    $0x8,%esp
    3cc2:	5b                   	pop    %ebx
    3cc3:	c3                   	ret    

5 115